   1              		.syntax unified
   2              		.cpu cortex-m4
   3              		.eabi_attribute 27, 3
   4              		.fpu fpv4-sp-d16
   5              		.eabi_attribute 20, 1
   6              		.eabi_attribute 21, 1
   7              		.eabi_attribute 23, 3
   8              		.eabi_attribute 24, 1
   9              		.eabi_attribute 25, 1
  10              		.eabi_attribute 26, 1
  11              		.eabi_attribute 30, 6
  12              		.eabi_attribute 34, 1
  13              		.eabi_attribute 18, 4
  14              		.thumb
  15              		.file	"Exe3_Task_1.cpp"
  16              		.text
  17              	.Ltext0:
  18              		.cfi_sections	.debug_frame
  19              		.section	.rodata
  20              		.align	2
  21              	.LC0:
  22 0000 546F7069 		.ascii	"Topic Deleted\000"
  22      63204465 
  22      6C657465 
  22      6400
  23              		.section	.text._ZN5RODOS14TopicInterfaceD2Ev,"axG",%progbits,_ZN5RODOS14TopicInterfaceD5Ev,comdat
  24              		.align	2
  25              		.weak	_ZN5RODOS14TopicInterfaceD2Ev
  26              		.thumb
  27              		.thumb_func
  29              	_ZN5RODOS14TopicInterfaceD2Ev:
  30              	.LFB55:
  31              		.file 1 "/home/rodos/Discovery_WorkSpace_Updated/rodos/api/topic.h"
   1:/home/rodos/Discovery_WorkSpace_Updated/rodos/api/topic.h **** 
   2:/home/rodos/Discovery_WorkSpace_Updated/rodos/api/topic.h **** 
   3:/home/rodos/Discovery_WorkSpace_Updated/rodos/api/topic.h **** /*********************************************************** Copyright
   4:/home/rodos/Discovery_WorkSpace_Updated/rodos/api/topic.h ****  **
   5:/home/rodos/Discovery_WorkSpace_Updated/rodos/api/topic.h ****  ** Copyright (c) 2008, German Aerospace Center (DLR)
   6:/home/rodos/Discovery_WorkSpace_Updated/rodos/api/topic.h ****  ** All rights reserved.
   7:/home/rodos/Discovery_WorkSpace_Updated/rodos/api/topic.h ****  **
   8:/home/rodos/Discovery_WorkSpace_Updated/rodos/api/topic.h ****  ** Redistribution and use in source and binary forms, with or without
   9:/home/rodos/Discovery_WorkSpace_Updated/rodos/api/topic.h ****  ** modification, are permitted provided that the following conditions are
  10:/home/rodos/Discovery_WorkSpace_Updated/rodos/api/topic.h ****  ** met:
  11:/home/rodos/Discovery_WorkSpace_Updated/rodos/api/topic.h ****  **
  12:/home/rodos/Discovery_WorkSpace_Updated/rodos/api/topic.h ****  ** 1 Redistributions of source code must retain the above copyright
  13:/home/rodos/Discovery_WorkSpace_Updated/rodos/api/topic.h ****  **   notice, this list of conditions and the following disclaimer.
  14:/home/rodos/Discovery_WorkSpace_Updated/rodos/api/topic.h ****  **
  15:/home/rodos/Discovery_WorkSpace_Updated/rodos/api/topic.h ****  ** 2 Redistributions in binary form must reproduce the above copyright
  16:/home/rodos/Discovery_WorkSpace_Updated/rodos/api/topic.h ****  **   notice, this list of conditions and the following disclaimer in the
  17:/home/rodos/Discovery_WorkSpace_Updated/rodos/api/topic.h ****  **   documentation and/or other materials provided with the
  18:/home/rodos/Discovery_WorkSpace_Updated/rodos/api/topic.h ****  **   distribution.
  19:/home/rodos/Discovery_WorkSpace_Updated/rodos/api/topic.h ****  **
  20:/home/rodos/Discovery_WorkSpace_Updated/rodos/api/topic.h ****  ** 3 Neither the name of the German Aerospace Center nor the names of
  21:/home/rodos/Discovery_WorkSpace_Updated/rodos/api/topic.h ****  **   its contributors may be used to endorse or promote products derived
  22:/home/rodos/Discovery_WorkSpace_Updated/rodos/api/topic.h ****  **   from this software without specific prior written permission.
  23:/home/rodos/Discovery_WorkSpace_Updated/rodos/api/topic.h ****  **
  24:/home/rodos/Discovery_WorkSpace_Updated/rodos/api/topic.h ****  ** THIS SOFTWARE IS PROVIDED BY THE COPYRIGHT HOLDERS AND CONTRIBUTORS
  25:/home/rodos/Discovery_WorkSpace_Updated/rodos/api/topic.h ****  ** "AS IS" AND ANY EXPRESS OR IMPLIED WARRANTIES, INCLUDING, BUT NOT
  26:/home/rodos/Discovery_WorkSpace_Updated/rodos/api/topic.h ****  ** LIMITED TO, THE IMPLIED WARRANTIES OF MERCHANTABILITY AND FITNESS FOR
  27:/home/rodos/Discovery_WorkSpace_Updated/rodos/api/topic.h ****  ** A PARTICULAR PURPOSE ARE DISCLAIMED. IN NO EVENT SHALL THE COPYRIGHT
  28:/home/rodos/Discovery_WorkSpace_Updated/rodos/api/topic.h ****  ** OWNER OR CONTRIBUTORS BE LIABLE FOR ANY DIRECT, INDIRECT, INCIDENTAL,
  29:/home/rodos/Discovery_WorkSpace_Updated/rodos/api/topic.h ****  ** SPECIAL, EXEMPLARY, OR CONSEQUENTIAL DAMAGES (INCLUDING, BUT NOT
  30:/home/rodos/Discovery_WorkSpace_Updated/rodos/api/topic.h ****  ** LIMITED TO, PROCUREMENT OF SUBSTITUTE GOODS OR SERVICES; LOSS OF USE,
  31:/home/rodos/Discovery_WorkSpace_Updated/rodos/api/topic.h ****  ** DATA, OR PROFITS; OR BUSINESS INTERRUPTION) HOWEVER CAUSED AND ON ANY
  32:/home/rodos/Discovery_WorkSpace_Updated/rodos/api/topic.h ****  ** THEORY OF LIABILITY, WHETHER IN CONTRACT, STRICT LIABILITY, OR TORT
  33:/home/rodos/Discovery_WorkSpace_Updated/rodos/api/topic.h ****  ** (INCLUDING NEGLIGENCE OR OTHERWISE) ARISING IN ANY WAY OUT OF THE USE
  34:/home/rodos/Discovery_WorkSpace_Updated/rodos/api/topic.h ****  ** OF THIS SOFTWARE, EVEN IF ADVISED OF THE POSSIBILITY OF SUCH DAMAGE.
  35:/home/rodos/Discovery_WorkSpace_Updated/rodos/api/topic.h ****  **
  36:/home/rodos/Discovery_WorkSpace_Updated/rodos/api/topic.h ****  ****************************************************************************/
  37:/home/rodos/Discovery_WorkSpace_Updated/rodos/api/topic.h **** 
  38:/home/rodos/Discovery_WorkSpace_Updated/rodos/api/topic.h **** 
  39:/home/rodos/Discovery_WorkSpace_Updated/rodos/api/topic.h **** 
  40:/home/rodos/Discovery_WorkSpace_Updated/rodos/api/topic.h **** /**
  41:/home/rodos/Discovery_WorkSpace_Updated/rodos/api/topic.h ****  * @file topic.h
  42:/home/rodos/Discovery_WorkSpace_Updated/rodos/api/topic.h ****  * @date 2008/09/01 7:07
  43:/home/rodos/Discovery_WorkSpace_Updated/rodos/api/topic.h ****  * @author Sergio Montenegro
  44:/home/rodos/Discovery_WorkSpace_Updated/rodos/api/topic.h ****  *
  45:/home/rodos/Discovery_WorkSpace_Updated/rodos/api/topic.h ****  * Copyright 2008 DLR
  46:/home/rodos/Discovery_WorkSpace_Updated/rodos/api/topic.h ****  *
  47:/home/rodos/Discovery_WorkSpace_Updated/rodos/api/topic.h ****  * @brief topic for middleware
  48:/home/rodos/Discovery_WorkSpace_Updated/rodos/api/topic.h ****  *
  49:/home/rodos/Discovery_WorkSpace_Updated/rodos/api/topic.h ****  */
  50:/home/rodos/Discovery_WorkSpace_Updated/rodos/api/topic.h **** 
  51:/home/rodos/Discovery_WorkSpace_Updated/rodos/api/topic.h **** #pragma once
  52:/home/rodos/Discovery_WorkSpace_Updated/rodos/api/topic.h **** 
  53:/home/rodos/Discovery_WorkSpace_Updated/rodos/api/topic.h **** #include "debug.h"
  54:/home/rodos/Discovery_WorkSpace_Updated/rodos/api/topic.h **** #include "gateway/networkmessage.h"
  55:/home/rodos/Discovery_WorkSpace_Updated/rodos/api/topic.h **** 
  56:/home/rodos/Discovery_WorkSpace_Updated/rodos/api/topic.h **** #ifndef NO_RODOS_NAMESPACE
  57:/home/rodos/Discovery_WorkSpace_Updated/rodos/api/topic.h **** namespace RODOS {
  58:/home/rodos/Discovery_WorkSpace_Updated/rodos/api/topic.h **** #endif
  59:/home/rodos/Discovery_WorkSpace_Updated/rodos/api/topic.h **** 
  60:/home/rodos/Discovery_WorkSpace_Updated/rodos/api/topic.h **** class NetMsgInfo;
  61:/home/rodos/Discovery_WorkSpace_Updated/rodos/api/topic.h **** class TopicFilter;
  62:/home/rodos/Discovery_WorkSpace_Updated/rodos/api/topic.h **** 
  63:/home/rodos/Discovery_WorkSpace_Updated/rodos/api/topic.h **** #define	RODOS_LOCAL_BROADCAST	0
  64:/home/rodos/Discovery_WorkSpace_Updated/rodos/api/topic.h **** 
  65:/home/rodos/Discovery_WorkSpace_Updated/rodos/api/topic.h **** /**
  66:/home/rodos/Discovery_WorkSpace_Updated/rodos/api/topic.h ****  *  @class TopicInterface
  67:/home/rodos/Discovery_WorkSpace_Updated/rodos/api/topic.h ****  *  @brief TopicInterface only for internal use
  68:/home/rodos/Discovery_WorkSpace_Updated/rodos/api/topic.h ****  *
  69:/home/rodos/Discovery_WorkSpace_Updated/rodos/api/topic.h ****  *  The middleware communication is based on the publisher/subscriber protocol.
  70:/home/rodos/Discovery_WorkSpace_Updated/rodos/api/topic.h ****  *  Publishers make messages public under a given topic.
  71:/home/rodos/Discovery_WorkSpace_Updated/rodos/api/topic.h ****  *  Subscriber to a given topic get all messages which are published
  72:/home/rodos/Discovery_WorkSpace_Updated/rodos/api/topic.h ****  *  under the given topic.
  73:/home/rodos/Discovery_WorkSpace_Updated/rodos/api/topic.h ****  * To establish a transfer path, both,
  74:/home/rodos/Discovery_WorkSpace_Updated/rodos/api/topic.h ****  * publisher and subscriber have to share the same topic.
  75:/home/rodos/Discovery_WorkSpace_Updated/rodos/api/topic.h ****  *
  76:/home/rodos/Discovery_WorkSpace_Updated/rodos/api/topic.h ****  * A Topic is a pair: data-type and an integer representing
  77:/home/rodos/Discovery_WorkSpace_Updated/rodos/api/topic.h ****  * a topic identifier.
  78:/home/rodos/Discovery_WorkSpace_Updated/rodos/api/topic.h ****  *
  79:/home/rodos/Discovery_WorkSpace_Updated/rodos/api/topic.h ****  * To access topics in an generic way which is independent of
  80:/home/rodos/Discovery_WorkSpace_Updated/rodos/api/topic.h ****  * data type and topicId, a TopicInterface is created.
  81:/home/rodos/Discovery_WorkSpace_Updated/rodos/api/topic.h ****  *
  82:/home/rodos/Discovery_WorkSpace_Updated/rodos/api/topic.h ****  */
  83:/home/rodos/Discovery_WorkSpace_Updated/rodos/api/topic.h **** 
  84:/home/rodos/Discovery_WorkSpace_Updated/rodos/api/topic.h **** class TopicInterface : public ListElement {
  85:/home/rodos/Discovery_WorkSpace_Updated/rodos/api/topic.h **** 
  86:/home/rodos/Discovery_WorkSpace_Updated/rodos/api/topic.h **** 	friend void initSystem();
  87:/home/rodos/Discovery_WorkSpace_Updated/rodos/api/topic.h **** 	friend class Gateway;
  88:/home/rodos/Discovery_WorkSpace_Updated/rodos/api/topic.h **** 	friend class Subscriber;
  89:/home/rodos/Discovery_WorkSpace_Updated/rodos/api/topic.h **** 	// friend class NetworkPoller; // TODO remove this
  90:/home/rodos/Discovery_WorkSpace_Updated/rodos/api/topic.h **** 	friend class TopicReporter;
  91:/home/rodos/Discovery_WorkSpace_Updated/rodos/api/topic.h **** 
  92:/home/rodos/Discovery_WorkSpace_Updated/rodos/api/topic.h **** public:
  93:/home/rodos/Discovery_WorkSpace_Updated/rodos/api/topic.h **** 
  94:/home/rodos/Discovery_WorkSpace_Updated/rodos/api/topic.h **** 
  95:/home/rodos/Discovery_WorkSpace_Updated/rodos/api/topic.h **** //protected:
  96:/home/rodos/Discovery_WorkSpace_Updated/rodos/api/topic.h **** 	static List topicList; ///< List of all topics present in the system
  97:/home/rodos/Discovery_WorkSpace_Updated/rodos/api/topic.h **** 	List mySubscribers; ///< List of pointers to subscribers associated to one topic instance
  98:/home/rodos/Discovery_WorkSpace_Updated/rodos/api/topic.h ****         TopicFilter* topicFilter; ///< a filter may modify the content of the message befor the sub
  99:/home/rodos/Discovery_WorkSpace_Updated/rodos/api/topic.h ****         
 100:/home/rodos/Discovery_WorkSpace_Updated/rodos/api/topic.h **** 	long topicId; ///< Topic ID used for identification by network tramsmitions
 101:/home/rodos/Discovery_WorkSpace_Updated/rodos/api/topic.h **** 	long msgLen; ///< Size of message transfered via this topic
 102:/home/rodos/Discovery_WorkSpace_Updated/rodos/api/topic.h **** 
 103:/home/rodos/Discovery_WorkSpace_Updated/rodos/api/topic.h **** 
 104:/home/rodos/Discovery_WorkSpace_Updated/rodos/api/topic.h **** 
 105:/home/rodos/Discovery_WorkSpace_Updated/rodos/api/topic.h **** public:
 106:/home/rodos/Discovery_WorkSpace_Updated/rodos/api/topic.h **** 
 107:/home/rodos/Discovery_WorkSpace_Updated/rodos/api/topic.h ****     TopicInterface(long id, long len, const char* name);
 108:/home/rodos/Discovery_WorkSpace_Updated/rodos/api/topic.h **** 
 109:/home/rodos/Discovery_WorkSpace_Updated/rodos/api/topic.h ****     virtual ~TopicInterface() { ERROR("Topic Deleted"); }
  32              		.loc 1 109 0
  33              		.cfi_startproc
  34              		@ args = 0, pretend = 0, frame = 8
  35              		@ frame_needed = 1, uses_anonymous_args = 0
  36 0000 80B5     		push	{r7, lr}
  37              	.LCFI0:
  38              		.cfi_def_cfa_offset 8
  39              		.cfi_offset 7, -8
  40              		.cfi_offset 14, -4
  41 0002 82B0     		sub	sp, sp, #8
  42              	.LCFI1:
  43              		.cfi_def_cfa_offset 16
  44 0004 00AF     		add	r7, sp, #0
  45              	.LCFI2:
  46              		.cfi_def_cfa_register 7
  47 0006 7860     		str	r0, [r7, #4]
  48              	.LBB2:
  49              		.loc 1 109 0
  50 0008 7B68     		ldr	r3, [r7, #4]
  51 000a 0E4A     		ldr	r2, .L5
  52 000c 1A60     		str	r2, [r3, #0]
  53 000e 40F20000 		movw	r0, #:lower16:.LC0
  54 0012 C0F20000 		movt	r0, #:upper16:.LC0
  55 0016 FFF7FEFF 		bl	_ZN5RODOS5ERROREPKc
  56 001a 7B68     		ldr	r3, [r7, #4]
  57 001c 03F10403 		add	r3, r3, #4
  58 0020 1846     		mov	r0, r3
  59 0022 FFF7FEFF 		bl	_ZN5RODOS11ListElementD2Ev
  60              	.LBE2:
  61 0026 4FF00003 		mov	r3, #0
  62 002a 03F00103 		and	r3, r3, #1
  63 002e 002B     		cmp	r3, #0
  64 0030 02D0     		beq	.L3
  65              		.loc 1 109 0 is_stmt 0 discriminator 2
  66 0032 7868     		ldr	r0, [r7, #4]
  67 0034 FFF7FEFF 		bl	_ZdlPv
  68              	.L3:
  69              		.loc 1 109 0 discriminator 3
  70 0038 7B68     		ldr	r3, [r7, #4]
  71 003a 1846     		mov	r0, r3
  72 003c 07F10807 		add	r7, r7, #8
  73 0040 BD46     		mov	sp, r7
  74 0042 80BD     		pop	{r7, pc}
  75              	.L6:
  76              		.align	2
  77              	.L5:
  78 0044 08000000 		.word	_ZTVN5RODOS14TopicInterfaceE+8
  79              		.cfi_endproc
  80              	.LFE55:
  82              		.weak	_ZN5RODOS14TopicInterfaceD1Ev
  83              		.thumb_set _ZN5RODOS14TopicInterfaceD1Ev,_ZN5RODOS14TopicInterfaceD2Ev
  84              		.section	.text._ZN5RODOS14TopicInterfaceD0Ev,"axG",%progbits,_ZN5RODOS14TopicInterfaceD0Ev,comdat
  85              		.align	2
  86              		.weak	_ZN5RODOS14TopicInterfaceD0Ev
  87              		.thumb
  88              		.thumb_func
  90              	_ZN5RODOS14TopicInterfaceD0Ev:
  91              	.LFB57:
  92              		.loc 1 109 0 is_stmt 1
  93              		.cfi_startproc
  94              		@ args = 0, pretend = 0, frame = 8
  95              		@ frame_needed = 1, uses_anonymous_args = 0
  96 0000 80B5     		push	{r7, lr}
  97              	.LCFI3:
  98              		.cfi_def_cfa_offset 8
  99              		.cfi_offset 7, -8
 100              		.cfi_offset 14, -4
 101 0002 82B0     		sub	sp, sp, #8
 102              	.LCFI4:
 103              		.cfi_def_cfa_offset 16
 104 0004 00AF     		add	r7, sp, #0
 105              	.LCFI5:
 106              		.cfi_def_cfa_register 7
 107 0006 7860     		str	r0, [r7, #4]
 108              		.loc 1 109 0
 109 0008 7868     		ldr	r0, [r7, #4]
 110 000a FFF7FEFF 		bl	_ZN5RODOS14TopicInterfaceD1Ev
 111 000e 7868     		ldr	r0, [r7, #4]
 112 0010 FFF7FEFF 		bl	_ZdlPv
 113 0014 7B68     		ldr	r3, [r7, #4]
 114 0016 1846     		mov	r0, r3
 115 0018 07F10807 		add	r7, r7, #8
 116 001c BD46     		mov	sp, r7
 117 001e 80BD     		pop	{r7, pc}
 118              		.cfi_endproc
 119              	.LFE57:
 121              		.section	.rodata
 122 000e 0000     		.align	2
 123              	.LC1:
 124 0010 53756273 		.ascii	"Subscriber deleted\000"
 124      63726962 
 124      65722064 
 124      656C6574 
 124      656400
 125              		.section	.text._ZN5RODOS10SubscriberD2Ev,"axG",%progbits,_ZN5RODOS10SubscriberD5Ev,comdat
 126              		.align	2
 127              		.weak	_ZN5RODOS10SubscriberD2Ev
 128              		.thumb
 129              		.thumb_func
 131              	_ZN5RODOS10SubscriberD2Ev:
 132              	.LFB69:
 133              		.file 2 "/home/rodos/Discovery_WorkSpace_Updated/rodos/api/subscriber.h"
   1:/home/rodos/Discovery_WorkSpace_Updated/rodos/api/subscriber.h **** 
   2:/home/rodos/Discovery_WorkSpace_Updated/rodos/api/subscriber.h **** 
   3:/home/rodos/Discovery_WorkSpace_Updated/rodos/api/subscriber.h **** /*********************************************************** Copyright
   4:/home/rodos/Discovery_WorkSpace_Updated/rodos/api/subscriber.h ****  **
   5:/home/rodos/Discovery_WorkSpace_Updated/rodos/api/subscriber.h ****  ** Copyright (c) 2008, German Aerospace Center (DLR)
   6:/home/rodos/Discovery_WorkSpace_Updated/rodos/api/subscriber.h ****  ** All rights reserved.
   7:/home/rodos/Discovery_WorkSpace_Updated/rodos/api/subscriber.h ****  **
   8:/home/rodos/Discovery_WorkSpace_Updated/rodos/api/subscriber.h ****  ** Redistribution and use in source and binary forms, with or without
   9:/home/rodos/Discovery_WorkSpace_Updated/rodos/api/subscriber.h ****  ** modification, are permitted provided that the following conditions are
  10:/home/rodos/Discovery_WorkSpace_Updated/rodos/api/subscriber.h ****  ** met:
  11:/home/rodos/Discovery_WorkSpace_Updated/rodos/api/subscriber.h ****  **
  12:/home/rodos/Discovery_WorkSpace_Updated/rodos/api/subscriber.h ****  ** 1 Redistributions of source code must retain the above copyright
  13:/home/rodos/Discovery_WorkSpace_Updated/rodos/api/subscriber.h ****  **   notice, this list of conditions and the following disclaimer.
  14:/home/rodos/Discovery_WorkSpace_Updated/rodos/api/subscriber.h ****  **
  15:/home/rodos/Discovery_WorkSpace_Updated/rodos/api/subscriber.h ****  ** 2 Redistributions in binary form must reproduce the above copyright
  16:/home/rodos/Discovery_WorkSpace_Updated/rodos/api/subscriber.h ****  **   notice, this list of conditions and the following disclaimer in the
  17:/home/rodos/Discovery_WorkSpace_Updated/rodos/api/subscriber.h ****  **   documentation and/or other materials provided with the
  18:/home/rodos/Discovery_WorkSpace_Updated/rodos/api/subscriber.h ****  **   distribution.
  19:/home/rodos/Discovery_WorkSpace_Updated/rodos/api/subscriber.h ****  **
  20:/home/rodos/Discovery_WorkSpace_Updated/rodos/api/subscriber.h ****  ** 3 Neither the name of the German Aerospace Center nor the names of
  21:/home/rodos/Discovery_WorkSpace_Updated/rodos/api/subscriber.h ****  **   its contributors may be used to endorse or promote products derived
  22:/home/rodos/Discovery_WorkSpace_Updated/rodos/api/subscriber.h ****  **   from this software without specific prior written permission.
  23:/home/rodos/Discovery_WorkSpace_Updated/rodos/api/subscriber.h ****  **
  24:/home/rodos/Discovery_WorkSpace_Updated/rodos/api/subscriber.h ****  ** THIS SOFTWARE IS PROVIDED BY THE COPYRIGHT HOLDERS AND CONTRIBUTORS
  25:/home/rodos/Discovery_WorkSpace_Updated/rodos/api/subscriber.h ****  ** "AS IS" AND ANY EXPRESS OR IMPLIED WARRANTIES, INCLUDING, BUT NOT
  26:/home/rodos/Discovery_WorkSpace_Updated/rodos/api/subscriber.h ****  ** LIMITED TO, THE IMPLIED WARRANTIES OF MERCHANTABILITY AND FITNESS FOR
  27:/home/rodos/Discovery_WorkSpace_Updated/rodos/api/subscriber.h ****  ** A PARTICULAR PURPOSE ARE DISCLAIMED. IN NO EVENT SHALL THE COPYRIGHT
  28:/home/rodos/Discovery_WorkSpace_Updated/rodos/api/subscriber.h ****  ** OWNER OR CONTRIBUTORS BE LIABLE FOR ANY DIRECT, INDIRECT, INCIDENTAL,
  29:/home/rodos/Discovery_WorkSpace_Updated/rodos/api/subscriber.h ****  ** SPECIAL, EXEMPLARY, OR CONSEQUENTIAL DAMAGES (INCLUDING, BUT NOT
  30:/home/rodos/Discovery_WorkSpace_Updated/rodos/api/subscriber.h ****  ** LIMITED TO, PROCUREMENT OF SUBSTITUTE GOODS OR SERVICES; LOSS OF USE,
  31:/home/rodos/Discovery_WorkSpace_Updated/rodos/api/subscriber.h ****  ** DATA, OR PROFITS; OR BUSINESS INTERRUPTION) HOWEVER CAUSED AND ON ANY
  32:/home/rodos/Discovery_WorkSpace_Updated/rodos/api/subscriber.h ****  ** THEORY OF LIABILITY, WHETHER IN CONTRACT, STRICT LIABILITY, OR TORT
  33:/home/rodos/Discovery_WorkSpace_Updated/rodos/api/subscriber.h ****  ** (INCLUDING NEGLIGENCE OR OTHERWISE) ARISING IN ANY WAY OUT OF THE USE
  34:/home/rodos/Discovery_WorkSpace_Updated/rodos/api/subscriber.h ****  ** OF THIS SOFTWARE, EVEN IF ADVISED OF THE POSSIBILITY OF SUCH DAMAGE.
  35:/home/rodos/Discovery_WorkSpace_Updated/rodos/api/subscriber.h ****  **
  36:/home/rodos/Discovery_WorkSpace_Updated/rodos/api/subscriber.h ****  ****************************************************************************/
  37:/home/rodos/Discovery_WorkSpace_Updated/rodos/api/subscriber.h **** 
  38:/home/rodos/Discovery_WorkSpace_Updated/rodos/api/subscriber.h **** 
  39:/home/rodos/Discovery_WorkSpace_Updated/rodos/api/subscriber.h **** /**
  40:/home/rodos/Discovery_WorkSpace_Updated/rodos/api/subscriber.h **** * @file subscriber.h
  41:/home/rodos/Discovery_WorkSpace_Updated/rodos/api/subscriber.h **** * @date 2008/09/01 7:07
  42:/home/rodos/Discovery_WorkSpace_Updated/rodos/api/subscriber.h **** * @author Sergio Montenegro
  43:/home/rodos/Discovery_WorkSpace_Updated/rodos/api/subscriber.h **** *
  44:/home/rodos/Discovery_WorkSpace_Updated/rodos/api/subscriber.h **** * Copyright 2008 DLR
  45:/home/rodos/Discovery_WorkSpace_Updated/rodos/api/subscriber.h **** *
  46:/home/rodos/Discovery_WorkSpace_Updated/rodos/api/subscriber.h **** * @brief subscribers for middleware
  47:/home/rodos/Discovery_WorkSpace_Updated/rodos/api/subscriber.h **** *
  48:/home/rodos/Discovery_WorkSpace_Updated/rodos/api/subscriber.h **** */
  49:/home/rodos/Discovery_WorkSpace_Updated/rodos/api/subscriber.h **** 
  50:/home/rodos/Discovery_WorkSpace_Updated/rodos/api/subscriber.h **** #pragma once
  51:/home/rodos/Discovery_WorkSpace_Updated/rodos/api/subscriber.h **** 
  52:/home/rodos/Discovery_WorkSpace_Updated/rodos/api/subscriber.h **** #include "semaphore.h"
  53:/home/rodos/Discovery_WorkSpace_Updated/rodos/api/subscriber.h **** #include "topic.h"
  54:/home/rodos/Discovery_WorkSpace_Updated/rodos/api/subscriber.h **** 
  55:/home/rodos/Discovery_WorkSpace_Updated/rodos/api/subscriber.h **** 
  56:/home/rodos/Discovery_WorkSpace_Updated/rodos/api/subscriber.h **** #ifndef NO_RODOS_NAMESPACE
  57:/home/rodos/Discovery_WorkSpace_Updated/rodos/api/subscriber.h **** namespace RODOS {
  58:/home/rodos/Discovery_WorkSpace_Updated/rodos/api/subscriber.h **** #endif
  59:/home/rodos/Discovery_WorkSpace_Updated/rodos/api/subscriber.h **** 
  60:/home/rodos/Discovery_WorkSpace_Updated/rodos/api/subscriber.h **** class Putter;
  61:/home/rodos/Discovery_WorkSpace_Updated/rodos/api/subscriber.h **** 
  62:/home/rodos/Discovery_WorkSpace_Updated/rodos/api/subscriber.h **** /**
  63:/home/rodos/Discovery_WorkSpace_Updated/rodos/api/subscriber.h **** * @class Subscriber
  64:/home/rodos/Discovery_WorkSpace_Updated/rodos/api/subscriber.h **** * @brief Subscriber to receive messages
  65:/home/rodos/Discovery_WorkSpace_Updated/rodos/api/subscriber.h **** *
  66:/home/rodos/Discovery_WorkSpace_Updated/rodos/api/subscriber.h **** *  The middleware communication is based on the publisher/subscriber protocol.
  67:/home/rodos/Discovery_WorkSpace_Updated/rodos/api/subscriber.h **** *  Publishers make messages public under a given topic.
  68:/home/rodos/Discovery_WorkSpace_Updated/rodos/api/subscriber.h **** *  Subscribers to a given topic get all messages which are published
  69:/home/rodos/Discovery_WorkSpace_Updated/rodos/api/subscriber.h **** *  under the given topic.
  70:/home/rodos/Discovery_WorkSpace_Updated/rodos/api/subscriber.h **** *  To establish a transfer path, both:
  71:/home/rodos/Discovery_WorkSpace_Updated/rodos/api/subscriber.h **** *  publisher and subscriber have to share the same topic.
  72:/home/rodos/Discovery_WorkSpace_Updated/rodos/api/subscriber.h **** *
  73:/home/rodos/Discovery_WorkSpace_Updated/rodos/api/subscriber.h **** * Each subscriber has a reference to the associated topic and a putter
  74:/home/rodos/Discovery_WorkSpace_Updated/rodos/api/subscriber.h **** * to store messages.
  75:/home/rodos/Discovery_WorkSpace_Updated/rodos/api/subscriber.h **** * All subscribers are registered in a list.
  76:/home/rodos/Discovery_WorkSpace_Updated/rodos/api/subscriber.h **** * Each time a messages is published the list of all subscriber will be search and
  77:/home/rodos/Discovery_WorkSpace_Updated/rodos/api/subscriber.h **** * for each subscriber where the topic matches the associated putter will be called
  78:/home/rodos/Discovery_WorkSpace_Updated/rodos/api/subscriber.h **** * to store a copy of the published message.
  79:/home/rodos/Discovery_WorkSpace_Updated/rodos/api/subscriber.h **** */
  80:/home/rodos/Discovery_WorkSpace_Updated/rodos/api/subscriber.h **** 
  81:/home/rodos/Discovery_WorkSpace_Updated/rodos/api/subscriber.h **** class NetMsgInfo {
  82:/home/rodos/Discovery_WorkSpace_Updated/rodos/api/subscriber.h **** public:
  83:/home/rodos/Discovery_WorkSpace_Updated/rodos/api/subscriber.h ****     int32_t senderNode;	///< Node ID of sending instance of RODOS
  84:/home/rodos/Discovery_WorkSpace_Updated/rodos/api/subscriber.h ****     int64_t sentTime;   ///< Time in localTime units 
  85:/home/rodos/Discovery_WorkSpace_Updated/rodos/api/subscriber.h ****     uint32_t senderThreadId;
  86:/home/rodos/Discovery_WorkSpace_Updated/rodos/api/subscriber.h ****     uint32_t linkId;
  87:/home/rodos/Discovery_WorkSpace_Updated/rodos/api/subscriber.h **** };
  88:/home/rodos/Discovery_WorkSpace_Updated/rodos/api/subscriber.h **** 
  89:/home/rodos/Discovery_WorkSpace_Updated/rodos/api/subscriber.h **** 
  90:/home/rodos/Discovery_WorkSpace_Updated/rodos/api/subscriber.h **** class Subscriber : public ListElement {
  91:/home/rodos/Discovery_WorkSpace_Updated/rodos/api/subscriber.h **** 
  92:/home/rodos/Discovery_WorkSpace_Updated/rodos/api/subscriber.h ****     friend class TopicInterface;
  93:/home/rodos/Discovery_WorkSpace_Updated/rodos/api/subscriber.h ****     friend class TopicReporter;
  94:/home/rodos/Discovery_WorkSpace_Updated/rodos/api/subscriber.h ****     friend void initSystem();
  95:/home/rodos/Discovery_WorkSpace_Updated/rodos/api/subscriber.h **** 
  96:/home/rodos/Discovery_WorkSpace_Updated/rodos/api/subscriber.h **** public:
  97:/home/rodos/Discovery_WorkSpace_Updated/rodos/api/subscriber.h ****     /// Reference to a topic to which the subscriber listens.
  98:/home/rodos/Discovery_WorkSpace_Updated/rodos/api/subscriber.h ****     TopicInterface& topicInterface;
  99:/home/rodos/Discovery_WorkSpace_Updated/rodos/api/subscriber.h **** 
 100:/home/rodos/Discovery_WorkSpace_Updated/rodos/api/subscriber.h ****     /// Reference to the associated handler of a message received.
 101:/home/rodos/Discovery_WorkSpace_Updated/rodos/api/subscriber.h ****     Putter* receiver;
 102:/home/rodos/Discovery_WorkSpace_Updated/rodos/api/subscriber.h **** 
 103:/home/rodos/Discovery_WorkSpace_Updated/rodos/api/subscriber.h **** protected:
 104:/home/rodos/Discovery_WorkSpace_Updated/rodos/api/subscriber.h ****     /// Flag to indicate if the subscriber broadcasts a message internally or externally
 105:/home/rodos/Discovery_WorkSpace_Updated/rodos/api/subscriber.h ****     bool isAGateway;
 106:/home/rodos/Discovery_WorkSpace_Updated/rodos/api/subscriber.h ****     /// Flag to activate or deactivate the subscriber
 107:/home/rodos/Discovery_WorkSpace_Updated/rodos/api/subscriber.h ****     bool isEnabled;
 108:/home/rodos/Discovery_WorkSpace_Updated/rodos/api/subscriber.h ****     /// List of all subscribers in the system
 109:/home/rodos/Discovery_WorkSpace_Updated/rodos/api/subscriber.h ****     static List subscriberList;
 110:/home/rodos/Discovery_WorkSpace_Updated/rodos/api/subscriber.h **** 
 111:/home/rodos/Discovery_WorkSpace_Updated/rodos/api/subscriber.h ****     Semaphore protector;
 112:/home/rodos/Discovery_WorkSpace_Updated/rodos/api/subscriber.h ****     /// DEPRECATED! DO not use anymore!
 113:/home/rodos/Discovery_WorkSpace_Updated/rodos/api/subscriber.h ****     virtual long put(const long topicId, const long len, const void* data, long linkId);
 114:/home/rodos/Discovery_WorkSpace_Updated/rodos/api/subscriber.h ****     /// Default function: forward the message and invoke the receiver (putter). It locks the semaph
 115:/home/rodos/Discovery_WorkSpace_Updated/rodos/api/subscriber.h ****     virtual long put(const long topicId, const long len, const void* data, const NetMsgInfo& netMsg
 116:/home/rodos/Discovery_WorkSpace_Updated/rodos/api/subscriber.h **** 
 117:/home/rodos/Discovery_WorkSpace_Updated/rodos/api/subscriber.h ****     /// do not locks any semaphore. Do not call any thread funcion
 118:/home/rodos/Discovery_WorkSpace_Updated/rodos/api/subscriber.h ****     /// default function resumes the associated thread (if defiend) if it is waiting for it
 119:/home/rodos/Discovery_WorkSpace_Updated/rodos/api/subscriber.h ****     virtual void putFromInterrupt(const long topicId, const void* any, int len = 0);
 120:/home/rodos/Discovery_WorkSpace_Updated/rodos/api/subscriber.h **** 
 121:/home/rodos/Discovery_WorkSpace_Updated/rodos/api/subscriber.h **** 
 122:/home/rodos/Discovery_WorkSpace_Updated/rodos/api/subscriber.h **** public:
 123:/home/rodos/Discovery_WorkSpace_Updated/rodos/api/subscriber.h **** 
 124:/home/rodos/Discovery_WorkSpace_Updated/rodos/api/subscriber.h ****     /** At creation time a connection to the corresponding topic
 125:/home/rodos/Discovery_WorkSpace_Updated/rodos/api/subscriber.h ****      * and putter (receiver) has to be done.
 126:/home/rodos/Discovery_WorkSpace_Updated/rodos/api/subscriber.h ****      * Subscriber my be "Normal" message receiver or may be Gateways.
 127:/home/rodos/Discovery_WorkSpace_Updated/rodos/api/subscriber.h ****      * Gatewayes are interfaces to other memory spaces and nodes, e.g.
 128:/home/rodos/Discovery_WorkSpace_Updated/rodos/api/subscriber.h ****      * going throug a network. Gateways just forward messages to other nodes.
 129:/home/rodos/Discovery_WorkSpace_Updated/rodos/api/subscriber.h ****      *
 130:/home/rodos/Discovery_WorkSpace_Updated/rodos/api/subscriber.h ****      * The parameter name is only used for debug purposes, to see which subscriber is
 131:/home/rodos/Discovery_WorkSpace_Updated/rodos/api/subscriber.h ****      * attached to which topic. Using names you can recognise present subscribers in listings.
 132:/home/rodos/Discovery_WorkSpace_Updated/rodos/api/subscriber.h ****      *
 133:/home/rodos/Discovery_WorkSpace_Updated/rodos/api/subscriber.h ****      * @param topic reference to the topic to which the owner will be subscribed
 134:/home/rodos/Discovery_WorkSpace_Updated/rodos/api/subscriber.h ****      * @param putter reference to a putter receiving messages from the topic subscribed
 135:/home/rodos/Discovery_WorkSpace_Updated/rodos/api/subscriber.h ****      * @param name name is used only for debug purposes, sing it one can recognise Threads.
 136:/home/rodos/Discovery_WorkSpace_Updated/rodos/api/subscriber.h ****      * @param isAGatewayParam : gateways get from all topics and they decide to forward or not
 137:/home/rodos/Discovery_WorkSpace_Updated/rodos/api/subscriber.h ****      */
 138:/home/rodos/Discovery_WorkSpace_Updated/rodos/api/subscriber.h ****     Subscriber(TopicInterface &topic, Putter& receiver, const char* name = "anonymSubscriber", bool
 139:/home/rodos/Discovery_WorkSpace_Updated/rodos/api/subscriber.h **** 
 140:/home/rodos/Discovery_WorkSpace_Updated/rodos/api/subscriber.h ****     /**
 141:/home/rodos/Discovery_WorkSpace_Updated/rodos/api/subscriber.h ****       * Simple subscriber has no ssociated receiver (nor thread nor putter), they just (have to)
 142:/home/rodos/Discovery_WorkSpace_Updated/rodos/api/subscriber.h ****       * redifine the put method
 143:/home/rodos/Discovery_WorkSpace_Updated/rodos/api/subscriber.h ****       */
 144:/home/rodos/Discovery_WorkSpace_Updated/rodos/api/subscriber.h ****     Subscriber(TopicInterface &topic, const char* name = "anonymThreadSubscriber");
 145:/home/rodos/Discovery_WorkSpace_Updated/rodos/api/subscriber.h **** 
 146:/home/rodos/Discovery_WorkSpace_Updated/rodos/api/subscriber.h ****     /// Destructor, should not be called in nominal operation.
 147:/home/rodos/Discovery_WorkSpace_Updated/rodos/api/subscriber.h ****     virtual ~Subscriber() { ERROR("Subscriber deleted"); }
 134              		.loc 2 147 0
 135              		.cfi_startproc
 136              		@ args = 0, pretend = 0, frame = 8
 137              		@ frame_needed = 1, uses_anonymous_args = 0
 138 0000 80B5     		push	{r7, lr}
 139              	.LCFI6:
 140              		.cfi_def_cfa_offset 8
 141              		.cfi_offset 7, -8
 142              		.cfi_offset 14, -4
 143 0002 82B0     		sub	sp, sp, #8
 144              	.LCFI7:
 145              		.cfi_def_cfa_offset 16
 146 0004 00AF     		add	r7, sp, #0
 147              	.LCFI8:
 148              		.cfi_def_cfa_register 7
 149 0006 7860     		str	r0, [r7, #4]
 150              	.LBB3:
 151              		.loc 2 147 0
 152 0008 7B68     		ldr	r3, [r7, #4]
 153 000a 0E4A     		ldr	r2, .L14
 154 000c 1A60     		str	r2, [r3, #0]
 155 000e 40F20000 		movw	r0, #:lower16:.LC1
 156 0012 C0F20000 		movt	r0, #:upper16:.LC1
 157 0016 FFF7FEFF 		bl	_ZN5RODOS5ERROREPKc
 158 001a 7B68     		ldr	r3, [r7, #4]
 159 001c 03F10403 		add	r3, r3, #4
 160 0020 1846     		mov	r0, r3
 161 0022 FFF7FEFF 		bl	_ZN5RODOS11ListElementD2Ev
 162              	.LBE3:
 163 0026 4FF00003 		mov	r3, #0
 164 002a 03F00103 		and	r3, r3, #1
 165 002e 002B     		cmp	r3, #0
 166 0030 02D0     		beq	.L12
 167              		.loc 2 147 0 is_stmt 0 discriminator 2
 168 0032 7868     		ldr	r0, [r7, #4]
 169 0034 FFF7FEFF 		bl	_ZdlPv
 170              	.L12:
 171              		.loc 2 147 0 discriminator 3
 172 0038 7B68     		ldr	r3, [r7, #4]
 173 003a 1846     		mov	r0, r3
 174 003c 07F10807 		add	r7, r7, #8
 175 0040 BD46     		mov	sp, r7
 176 0042 80BD     		pop	{r7, pc}
 177              	.L15:
 178              		.align	2
 179              	.L14:
 180 0044 08000000 		.word	_ZTVN5RODOS10SubscriberE+8
 181              		.cfi_endproc
 182              	.LFE69:
 184              		.weak	_ZN5RODOS10SubscriberD1Ev
 185              		.thumb_set _ZN5RODOS10SubscriberD1Ev,_ZN5RODOS10SubscriberD2Ev
 186              		.section	.text._ZN5RODOS10SubscriberD0Ev,"axG",%progbits,_ZN5RODOS10SubscriberD0Ev,comdat
 187              		.align	2
 188              		.weak	_ZN5RODOS10SubscriberD0Ev
 189              		.thumb
 190              		.thumb_func
 192              	_ZN5RODOS10SubscriberD0Ev:
 193              	.LFB71:
 194              		.loc 2 147 0 is_stmt 1
 195              		.cfi_startproc
 196              		@ args = 0, pretend = 0, frame = 8
 197              		@ frame_needed = 1, uses_anonymous_args = 0
 198 0000 80B5     		push	{r7, lr}
 199              	.LCFI9:
 200              		.cfi_def_cfa_offset 8
 201              		.cfi_offset 7, -8
 202              		.cfi_offset 14, -4
 203 0002 82B0     		sub	sp, sp, #8
 204              	.LCFI10:
 205              		.cfi_def_cfa_offset 16
 206 0004 00AF     		add	r7, sp, #0
 207              	.LCFI11:
 208              		.cfi_def_cfa_register 7
 209 0006 7860     		str	r0, [r7, #4]
 210              		.loc 2 147 0
 211 0008 7868     		ldr	r0, [r7, #4]
 212 000a FFF7FEFF 		bl	_ZN5RODOS10SubscriberD1Ev
 213 000e 7868     		ldr	r0, [r7, #4]
 214 0010 FFF7FEFF 		bl	_ZdlPv
 215 0014 7B68     		ldr	r3, [r7, #4]
 216 0016 1846     		mov	r0, r3
 217 0018 07F10807 		add	r7, r7, #8
 218 001c BD46     		mov	sp, r7
 219 001e 80BD     		pop	{r7, pc}
 220              		.cfi_endproc
 221              	.LFE71:
 223              		.section	.text._ZN5RODOS6PutterD2Ev,"axG",%progbits,_ZN5RODOS6PutterD5Ev,comdat
 224              		.align	2
 225              		.weak	_ZN5RODOS6PutterD2Ev
 226              		.thumb
 227              		.thumb_func
 229              	_ZN5RODOS6PutterD2Ev:
 230              	.LFB78:
 231              		.file 3 "/home/rodos/Discovery_WorkSpace_Updated/rodos/api/putter.h"
   1:/home/rodos/Discovery_WorkSpace_Updated/rodos/api/putter.h **** 
   2:/home/rodos/Discovery_WorkSpace_Updated/rodos/api/putter.h **** 
   3:/home/rodos/Discovery_WorkSpace_Updated/rodos/api/putter.h **** /*********************************************************** Copyright
   4:/home/rodos/Discovery_WorkSpace_Updated/rodos/api/putter.h ****  **
   5:/home/rodos/Discovery_WorkSpace_Updated/rodos/api/putter.h ****  ** Copyright (c) 2008, German Aerospace Center (DLR)
   6:/home/rodos/Discovery_WorkSpace_Updated/rodos/api/putter.h ****  ** All rights reserved.
   7:/home/rodos/Discovery_WorkSpace_Updated/rodos/api/putter.h ****  **
   8:/home/rodos/Discovery_WorkSpace_Updated/rodos/api/putter.h ****  ** Redistribution and use in source and binary forms, with or without
   9:/home/rodos/Discovery_WorkSpace_Updated/rodos/api/putter.h ****  ** modification, are permitted provided that the following conditions are
  10:/home/rodos/Discovery_WorkSpace_Updated/rodos/api/putter.h ****  ** met:
  11:/home/rodos/Discovery_WorkSpace_Updated/rodos/api/putter.h ****  **
  12:/home/rodos/Discovery_WorkSpace_Updated/rodos/api/putter.h ****  ** 1 Redistributions of source code must retain the above copyright
  13:/home/rodos/Discovery_WorkSpace_Updated/rodos/api/putter.h ****  **   notice, this list of conditions and the following disclaimer.
  14:/home/rodos/Discovery_WorkSpace_Updated/rodos/api/putter.h ****  **
  15:/home/rodos/Discovery_WorkSpace_Updated/rodos/api/putter.h ****  ** 2 Redistributions in binary form must reproduce the above copyright
  16:/home/rodos/Discovery_WorkSpace_Updated/rodos/api/putter.h ****  **   notice, this list of conditions and the following disclaimer in the
  17:/home/rodos/Discovery_WorkSpace_Updated/rodos/api/putter.h ****  **   documentation and/or other materials provided with the
  18:/home/rodos/Discovery_WorkSpace_Updated/rodos/api/putter.h ****  **   distribution.
  19:/home/rodos/Discovery_WorkSpace_Updated/rodos/api/putter.h ****  **
  20:/home/rodos/Discovery_WorkSpace_Updated/rodos/api/putter.h ****  ** 3 Neither the name of the German Aerospace Center nor the names of
  21:/home/rodos/Discovery_WorkSpace_Updated/rodos/api/putter.h ****  **   its contributors may be used to endorse or promote products derived
  22:/home/rodos/Discovery_WorkSpace_Updated/rodos/api/putter.h ****  **   from this software without specific prior written permission.
  23:/home/rodos/Discovery_WorkSpace_Updated/rodos/api/putter.h ****  **
  24:/home/rodos/Discovery_WorkSpace_Updated/rodos/api/putter.h ****  ** THIS SOFTWARE IS PROVIDED BY THE COPYRIGHT HOLDERS AND CONTRIBUTORS
  25:/home/rodos/Discovery_WorkSpace_Updated/rodos/api/putter.h ****  ** "AS IS" AND ANY EXPRESS OR IMPLIED WARRANTIES, INCLUDING, BUT NOT
  26:/home/rodos/Discovery_WorkSpace_Updated/rodos/api/putter.h ****  ** LIMITED TO, THE IMPLIED WARRANTIES OF MERCHANTABILITY AND FITNESS FOR
  27:/home/rodos/Discovery_WorkSpace_Updated/rodos/api/putter.h ****  ** A PARTICULAR PURPOSE ARE DISCLAIMED. IN NO EVENT SHALL THE COPYRIGHT
  28:/home/rodos/Discovery_WorkSpace_Updated/rodos/api/putter.h ****  ** OWNER OR CONTRIBUTORS BE LIABLE FOR ANY DIRECT, INDIRECT, INCIDENTAL,
  29:/home/rodos/Discovery_WorkSpace_Updated/rodos/api/putter.h ****  ** SPECIAL, EXEMPLARY, OR CONSEQUENTIAL DAMAGES (INCLUDING, BUT NOT
  30:/home/rodos/Discovery_WorkSpace_Updated/rodos/api/putter.h ****  ** LIMITED TO, PROCUREMENT OF SUBSTITUTE GOODS OR SERVICES; LOSS OF USE,
  31:/home/rodos/Discovery_WorkSpace_Updated/rodos/api/putter.h ****  ** DATA, OR PROFITS; OR BUSINESS INTERRUPTION) HOWEVER CAUSED AND ON ANY
  32:/home/rodos/Discovery_WorkSpace_Updated/rodos/api/putter.h ****  ** THEORY OF LIABILITY, WHETHER IN CONTRACT, STRICT LIABILITY, OR TORT
  33:/home/rodos/Discovery_WorkSpace_Updated/rodos/api/putter.h ****  ** (INCLUDING NEGLIGENCE OR OTHERWISE) ARISING IN ANY WAY OUT OF THE USE
  34:/home/rodos/Discovery_WorkSpace_Updated/rodos/api/putter.h ****  ** OF THIS SOFTWARE, EVEN IF ADVISED OF THE POSSIBILITY OF SUCH DAMAGE.
  35:/home/rodos/Discovery_WorkSpace_Updated/rodos/api/putter.h ****  **
  36:/home/rodos/Discovery_WorkSpace_Updated/rodos/api/putter.h ****  ****************************************************************************/
  37:/home/rodos/Discovery_WorkSpace_Updated/rodos/api/putter.h **** 
  38:/home/rodos/Discovery_WorkSpace_Updated/rodos/api/putter.h **** 
  39:/home/rodos/Discovery_WorkSpace_Updated/rodos/api/putter.h **** /**
  40:/home/rodos/Discovery_WorkSpace_Updated/rodos/api/putter.h ****  * @file putter.h
  41:/home/rodos/Discovery_WorkSpace_Updated/rodos/api/putter.h ****  * @date 2008/04/28 7:20
  42:/home/rodos/Discovery_WorkSpace_Updated/rodos/api/putter.h ****  * @author Sergio Montenegro, Lutz Dittrich
  43:/home/rodos/Discovery_WorkSpace_Updated/rodos/api/putter.h ****  *
  44:/home/rodos/Discovery_WorkSpace_Updated/rodos/api/putter.h ****  * Copyright 2008 DLR
  45:/home/rodos/Discovery_WorkSpace_Updated/rodos/api/putter.h ****  *
  46:/home/rodos/Discovery_WorkSpace_Updated/rodos/api/putter.h ****  *
  47:/home/rodos/Discovery_WorkSpace_Updated/rodos/api/putter.h ****  * @brief Superclass to elements which can accept/store data (header)
  48:/home/rodos/Discovery_WorkSpace_Updated/rodos/api/putter.h ****  *
  49:/home/rodos/Discovery_WorkSpace_Updated/rodos/api/putter.h ****  */
  50:/home/rodos/Discovery_WorkSpace_Updated/rodos/api/putter.h **** 
  51:/home/rodos/Discovery_WorkSpace_Updated/rodos/api/putter.h **** #pragma once
  52:/home/rodos/Discovery_WorkSpace_Updated/rodos/api/putter.h **** 
  53:/home/rodos/Discovery_WorkSpace_Updated/rodos/api/putter.h **** #include "params.h"
  54:/home/rodos/Discovery_WorkSpace_Updated/rodos/api/putter.h **** #include "subscriber.h"
  55:/home/rodos/Discovery_WorkSpace_Updated/rodos/api/putter.h **** 
  56:/home/rodos/Discovery_WorkSpace_Updated/rodos/api/putter.h **** 
  57:/home/rodos/Discovery_WorkSpace_Updated/rodos/api/putter.h **** #ifndef NO_RODOS_NAMESPACE
  58:/home/rodos/Discovery_WorkSpace_Updated/rodos/api/putter.h **** namespace RODOS {
  59:/home/rodos/Discovery_WorkSpace_Updated/rodos/api/putter.h **** #endif
  60:/home/rodos/Discovery_WorkSpace_Updated/rodos/api/putter.h **** 
  61:/home/rodos/Discovery_WorkSpace_Updated/rodos/api/putter.h **** /**
  62:/home/rodos/Discovery_WorkSpace_Updated/rodos/api/putter.h ****  * @class Putter
  63:/home/rodos/Discovery_WorkSpace_Updated/rodos/api/putter.h ****  * @brief Virtual superclass for classes which implement a put function
  64:/home/rodos/Discovery_WorkSpace_Updated/rodos/api/putter.h ****  *
  65:/home/rodos/Discovery_WorkSpace_Updated/rodos/api/putter.h ****  * Virtual superclass for classes which implement a put function
  66:/home/rodos/Discovery_WorkSpace_Updated/rodos/api/putter.h ****  * to store data, in order to have a generic interface to data storage,
  67:/home/rodos/Discovery_WorkSpace_Updated/rodos/api/putter.h ****  * eg. Fifo, CommBuffer, SyncFifo.
  68:/home/rodos/Discovery_WorkSpace_Updated/rodos/api/putter.h ****  */
  69:/home/rodos/Discovery_WorkSpace_Updated/rodos/api/putter.h **** class Putter {
  70:/home/rodos/Discovery_WorkSpace_Updated/rodos/api/putter.h **** public:
  71:/home/rodos/Discovery_WorkSpace_Updated/rodos/api/putter.h **** 
  72:/home/rodos/Discovery_WorkSpace_Updated/rodos/api/putter.h ****     virtual ~Putter() {};
 232              		.loc 3 72 0
 233              		.cfi_startproc
 234              		@ args = 0, pretend = 0, frame = 8
 235              		@ frame_needed = 1, uses_anonymous_args = 0
 236 0000 80B5     		push	{r7, lr}
 237              	.LCFI12:
 238              		.cfi_def_cfa_offset 8
 239              		.cfi_offset 7, -8
 240              		.cfi_offset 14, -4
 241 0002 82B0     		sub	sp, sp, #8
 242              	.LCFI13:
 243              		.cfi_def_cfa_offset 16
 244 0004 00AF     		add	r7, sp, #0
 245              	.LCFI14:
 246              		.cfi_def_cfa_register 7
 247 0006 7860     		str	r0, [r7, #4]
 248              	.LBB4:
 249              		.loc 3 72 0
 250 0008 7B68     		ldr	r3, [r7, #4]
 251 000a 084A     		ldr	r2, .L23
 252 000c 1A60     		str	r2, [r3, #0]
 253              	.LBE4:
 254 000e 4FF00003 		mov	r3, #0
 255 0012 03F00103 		and	r3, r3, #1
 256 0016 002B     		cmp	r3, #0
 257 0018 02D0     		beq	.L21
 258              		.loc 3 72 0 is_stmt 0 discriminator 1
 259 001a 7868     		ldr	r0, [r7, #4]
 260 001c FFF7FEFF 		bl	_ZdlPv
 261              	.L21:
 262              		.loc 3 72 0 discriminator 2
 263 0020 7B68     		ldr	r3, [r7, #4]
 264 0022 1846     		mov	r0, r3
 265 0024 07F10807 		add	r7, r7, #8
 266 0028 BD46     		mov	sp, r7
 267 002a 80BD     		pop	{r7, pc}
 268              	.L24:
 269              		.align	2
 270              	.L23:
 271 002c 08000000 		.word	_ZTVN5RODOS6PutterE+8
 272              		.cfi_endproc
 273              	.LFE78:
 275              		.weak	_ZN5RODOS6PutterD1Ev
 276              		.thumb_set _ZN5RODOS6PutterD1Ev,_ZN5RODOS6PutterD2Ev
 277              		.section	.text._ZN5RODOS6PutterD0Ev,"axG",%progbits,_ZN5RODOS6PutterD0Ev,comdat
 278              		.align	2
 279              		.weak	_ZN5RODOS6PutterD0Ev
 280              		.thumb
 281              		.thumb_func
 283              	_ZN5RODOS6PutterD0Ev:
 284              	.LFB80:
 285              		.loc 3 72 0 is_stmt 1
 286              		.cfi_startproc
 287              		@ args = 0, pretend = 0, frame = 8
 288              		@ frame_needed = 1, uses_anonymous_args = 0
 289 0000 80B5     		push	{r7, lr}
 290              	.LCFI15:
 291              		.cfi_def_cfa_offset 8
 292              		.cfi_offset 7, -8
 293              		.cfi_offset 14, -4
 294 0002 82B0     		sub	sp, sp, #8
 295              	.LCFI16:
 296              		.cfi_def_cfa_offset 16
 297 0004 00AF     		add	r7, sp, #0
 298              	.LCFI17:
 299              		.cfi_def_cfa_register 7
 300 0006 7860     		str	r0, [r7, #4]
 301              		.loc 3 72 0
 302 0008 7868     		ldr	r0, [r7, #4]
 303 000a FFF7FEFF 		bl	_ZN5RODOS6PutterD1Ev
 304 000e 7868     		ldr	r0, [r7, #4]
 305 0010 FFF7FEFF 		bl	_ZdlPv
 306 0014 7B68     		ldr	r3, [r7, #4]
 307 0016 1846     		mov	r0, r3
 308 0018 07F10807 		add	r7, r7, #8
 309 001c BD46     		mov	sp, r7
 310 001e 80BD     		pop	{r7, pc}
 311              		.cfi_endproc
 312              	.LFE80:
 314              		.section	.rodata
 315 0023 00       		.align	2
 316              	.LC2:
 317 0024 49662079 		.ascii	"If you see this message, You are overriding a depre"
 317      6F752073 
 317      65652074 
 317      68697320 
 317      6D657373 
 318 0057 63617465 		.ascii	"cated old put function from Putter. please override"
 318      64206F6C 
 318      64207075 
 318      74206675 
 318      6E637469 
 319 008a 206F6E6C 		.ascii	" only the new (this!) putGeneric\000"
 319      79207468 
 319      65206E65 
 319      77202874 
 319      68697321 
 320              		.section	.text._ZN5RODOS6Putter10putGenericEljPKvRKNS_10NetMsgInfoE,"axG",%progbits,_ZN5RODOS6Putt
 321              		.align	2
 322              		.weak	_ZN5RODOS6Putter10putGenericEljPKvRKNS_10NetMsgInfoE
 323              		.thumb
 324              		.thumb_func
 326              	_ZN5RODOS6Putter10putGenericEljPKvRKNS_10NetMsgInfoE:
 327              	.LFB81:
  73:/home/rodos/Discovery_WorkSpace_Updated/rodos/api/putter.h **** 
  74:/home/rodos/Discovery_WorkSpace_Updated/rodos/api/putter.h ****     virtual bool putGeneric(const long topicId, const unsigned int len, const void* msg, const NetM
 328              		.loc 3 74 0
 329              		.cfi_startproc
 330              		@ args = 4, pretend = 0, frame = 16
 331              		@ frame_needed = 1, uses_anonymous_args = 0
 332 0000 80B5     		push	{r7, lr}
 333              	.LCFI18:
 334              		.cfi_def_cfa_offset 8
 335              		.cfi_offset 7, -8
 336              		.cfi_offset 14, -4
 337 0002 84B0     		sub	sp, sp, #16
 338              	.LCFI19:
 339              		.cfi_def_cfa_offset 24
 340 0004 00AF     		add	r7, sp, #0
 341              	.LCFI20:
 342              		.cfi_def_cfa_register 7
 343 0006 F860     		str	r0, [r7, #12]
 344 0008 B960     		str	r1, [r7, #8]
 345 000a 7A60     		str	r2, [r7, #4]
 346 000c 3B60     		str	r3, [r7, #0]
  75:/home/rodos/Discovery_WorkSpace_Updated/rodos/api/putter.h ****        ERROR("If you see this message, You are overriding a deprecated old put function from Putter
 347              		.loc 3 75 0
 348 000e 40F20000 		movw	r0, #:lower16:.LC2
 349 0012 C0F20000 		movt	r0, #:upper16:.LC2
 350 0016 FFF7FEFF 		bl	_ZN5RODOS5ERROREPKc
  76:/home/rodos/Discovery_WorkSpace_Updated/rodos/api/putter.h ****        return false;
 351              		.loc 3 76 0
 352 001a 4FF00003 		mov	r3, #0
  77:/home/rodos/Discovery_WorkSpace_Updated/rodos/api/putter.h ****     }
 353              		.loc 3 77 0
 354 001e 1846     		mov	r0, r3
 355 0020 07F11007 		add	r7, r7, #16
 356 0024 BD46     		mov	sp, r7
 357 0026 80BD     		pop	{r7, pc}
 358              		.cfi_endproc
 359              	.LFE81:
 361              		.global	ReceiveState
 362              		.section	.bss.ReceiveState,"aw",%nobits
 365              	ReceiveState:
 366 0000 00       		.space	1
 367              		.global	SignFlag
 368              		.section	.bss.SignFlag,"aw",%nobits
 371              	SignFlag:
 372 0000 00       		.space	1
 373              		.global	DotFlag
 374              		.section	.bss.DotFlag,"aw",%nobits
 377              	DotFlag:
 378 0000 00       		.space	1
 379              		.global	DataIndex
 380              		.section	.bss.DataIndex,"aw",%nobits
 383              	DataIndex:
 384 0000 00       		.space	1
 385              		.global	TelecommandID
 386              		.section	.bss.TelecommandID,"aw",%nobits
 389              	TelecommandID:
 390 0000 00       		.space	1
 391              		.global	ReceiveData
 392              		.section	.bss.ReceiveData,"aw",%nobits
 393              		.align	2
 396              	ReceiveData:
 397 0000 00000000 		.space	12
 397      00000000 
 397      00000000 
 398              		.global	TelecommandLED
 399              		.section	.bss.TelecommandLED,"aw",%nobits
 400              		.align	2
 403              	TelecommandLED:
 404 0000 00000000 		.space	28
 404      00000000 
 404      00000000 
 404      00000000 
 404      00000000 
 405              		.global	TelemetryDataTopic
 406              		.section	.bss.TelemetryDataTopic,"aw",%nobits
 407              		.align	2
 410              	TelemetryDataTopic:
 411 0000 00000000 		.space	36
 411      00000000 
 411      00000000 
 411      00000000 
 411      00000000 
 412              		.global	TelemetryDataBuffer
 413              		.section	.bss.TelemetryDataBuffer,"aw",%nobits
 414              		.align	3
 417              	TelemetryDataBuffer:
 418 0000 00000000 		.space	72
 418      00000000 
 418      00000000 
 418      00000000 
 418      00000000 
 419              		.global	TelemetryDataSubscriber
 420              		.section	.bss.TelemetryDataSubscriber,"aw",%nobits
 421              		.align	2
 424              	TelemetryDataSubscriber:
 425 0000 00000000 		.space	48
 425      00000000 
 425      00000000 
 425      00000000 
 425      00000000 
 426              		.global	TelecommandDataTopic
 427              		.section	.bss.TelecommandDataTopic,"aw",%nobits
 428              		.align	2
 431              	TelecommandDataTopic:
 432 0000 00000000 		.space	36
 432      00000000 
 432      00000000 
 432      00000000 
 432      00000000 
 433              		.section	.text._ZN13TelemetryDataC2Ev,"axG",%progbits,_ZN13TelemetryDataC5Ev,comdat
 434              		.align	2
 435              		.weak	_ZN13TelemetryDataC2Ev
 436              		.thumb
 437              		.thumb_func
 439              	_ZN13TelemetryDataC2Ev:
 440              	.LFB186:
 441              		.file 4 "../Exe3_Task_1.cpp"
   1:../Exe3_Task_1.cpp **** #include "rodos.h"
   2:../Exe3_Task_1.cpp **** #include "hal_gpio.h"
   3:../Exe3_Task_1.cpp **** #include "hal_uart.h"
   4:../Exe3_Task_1.cpp **** #include "math.h"
   5:../Exe3_Task_1.cpp **** #include <stdio.h>
   6:../Exe3_Task_1.cpp **** #include <stdlib.h>
   7:../Exe3_Task_1.cpp **** #include <float.h>
   8:../Exe3_Task_1.cpp **** #include <climits>
   9:../Exe3_Task_1.cpp **** 
  10:../Exe3_Task_1.cpp **** #include "Exe3_Task1.h"
  11:../Exe3_Task_1.cpp **** 
  12:../Exe3_Task_1.cpp **** 
  13:../Exe3_Task_1.cpp **** namespace RODOS {
  14:../Exe3_Task_1.cpp **** extern HAL_UART uart_stdout;
  15:../Exe3_Task_1.cpp **** }
  16:../Exe3_Task_1.cpp **** #define uartPort uart_stdout
  17:../Exe3_Task_1.cpp **** 
  18:../Exe3_Task_1.cpp **** void extract_teleData(char buffer[]);
  19:../Exe3_Task_1.cpp **** 
  20:../Exe3_Task_1.cpp **** 
  21:../Exe3_Task_1.cpp **** struct TelecommandData {
  22:../Exe3_Task_1.cpp ****     char id;
  23:../Exe3_Task_1.cpp ****     float param;
  24:../Exe3_Task_1.cpp **** 
  25:../Exe3_Task_1.cpp **** };
  26:../Exe3_Task_1.cpp **** 
  27:../Exe3_Task_1.cpp **** struct TelemetryData {
 442              		.loc 4 27 0
 443              		.cfi_startproc
 444              		@ args = 0, pretend = 0, frame = 8
 445              		@ frame_needed = 1, uses_anonymous_args = 0
 446              		@ link register save eliminated.
 447 0000 80B4     		push	{r7}
 448              	.LCFI21:
 449              		.cfi_def_cfa_offset 4
 450              		.cfi_offset 7, -4
 451 0002 83B0     		sub	sp, sp, #12
 452              	.LCFI22:
 453              		.cfi_def_cfa_offset 16
 454 0004 00AF     		add	r7, sp, #0
 455              	.LCFI23:
 456              		.cfi_def_cfa_register 7
 457 0006 7860     		str	r0, [r7, #4]
 458              	.LBB5:
 459              		.loc 4 27 0
 460 0008 7B68     		ldr	r3, [r7, #4]
 461 000a 4FF07E52 		mov	r2, #1065353216
 462 000e 1A60     		str	r2, [r3, #0]	@ float
 463 0010 7B68     		ldr	r3, [r7, #4]
 464 0012 4FF00002 		mov	r2, #0
 465 0016 C4F24002 		movt	r2, 16448
 466 001a 5A60     		str	r2, [r3, #4]	@ float
 467 001c 7B68     		ldr	r3, [r7, #4]
 468 001e 4FF08042 		mov	r2, #1073741824
 469 0022 9A60     		str	r2, [r3, #8]	@ float
 470              	.LBE5:
 471 0024 7B68     		ldr	r3, [r7, #4]
 472 0026 1846     		mov	r0, r3
 473 0028 07F10C07 		add	r7, r7, #12
 474 002c BD46     		mov	sp, r7
 475 002e 80BC     		pop	{r7}
 476 0030 7047     		bx	lr
 477              		.cfi_endproc
 478              	.LFE186:
 480              		.weak	_ZN13TelemetryDataC1Ev
 481              		.thumb_set _ZN13TelemetryDataC1Ev,_ZN13TelemetryDataC2Ev
 482              		.global	tm
 483              		.section	.bss.tm,"aw",%nobits
 484              		.align	2
 487              	tm:
 488 0000 00000000 		.space	12
 488      00000000 
 488      00000000 
 489              		.section	.text._ZN11Telecommand4initEv,"axG",%progbits,_ZN11Telecommand4initEv,comdat
 490              		.align	2
 491              		.weak	_ZN11Telecommand4initEv
 492              		.thumb
 493              		.thumb_func
 495              	_ZN11Telecommand4initEv:
 496              	.LFB188:
  28:../Exe3_Task_1.cpp **** 
  29:../Exe3_Task_1.cpp ****     float stepsize=1;
  30:../Exe3_Task_1.cpp ****     float runing_time_t1=3;
  31:../Exe3_Task_1.cpp ****     float runing_time_t2=2;
  32:../Exe3_Task_1.cpp **** 
  33:../Exe3_Task_1.cpp **** };
  34:../Exe3_Task_1.cpp **** 
  35:../Exe3_Task_1.cpp **** Topic<TelemetryData> TelemetryDataTopic(111, "Telemetry Data");
  36:../Exe3_Task_1.cpp **** CommBuffer<TelemetryData> TelemetryDataBuffer;
  37:../Exe3_Task_1.cpp **** Subscriber TelemetryDataSubscriber(TelemetryDataTopic, TelemetryDataBuffer);
  38:../Exe3_Task_1.cpp **** 
  39:../Exe3_Task_1.cpp **** 
  40:../Exe3_Task_1.cpp **** 
  41:../Exe3_Task_1.cpp **** 
  42:../Exe3_Task_1.cpp **** Topic<TelecommandData> TelecommandDataTopic(222, "Telecommand Data");
  43:../Exe3_Task_1.cpp **** 
  44:../Exe3_Task_1.cpp **** TelemetryData tm;
  45:../Exe3_Task_1.cpp **** 
  46:../Exe3_Task_1.cpp **** class Telecommand:public Thread
  47:../Exe3_Task_1.cpp **** 
  48:../Exe3_Task_1.cpp **** {
  49:../Exe3_Task_1.cpp **** 
  50:../Exe3_Task_1.cpp **** public:
  51:../Exe3_Task_1.cpp **** 
  52:../Exe3_Task_1.cpp ****     char buffer[13];
  53:../Exe3_Task_1.cpp ****     char RxBuffer;
  54:../Exe3_Task_1.cpp ****     int ctr=0;
  55:../Exe3_Task_1.cpp **** 
  56:../Exe3_Task_1.cpp ****     TelecommandData tc;
  57:../Exe3_Task_1.cpp ****     TelemetryData tm;
  58:../Exe3_Task_1.cpp **** 
  59:../Exe3_Task_1.cpp ****     enum state {
  60:../Exe3_Task_1.cpp ****         START, RIDC, RDATA
  61:../Exe3_Task_1.cpp ****     } currentState;
  62:../Exe3_Task_1.cpp **** 
  63:../Exe3_Task_1.cpp **** 
  64:../Exe3_Task_1.cpp ****          void init()
 497              		.loc 4 64 0
 498              		.cfi_startproc
 499              		@ args = 0, pretend = 0, frame = 8
 500              		@ frame_needed = 1, uses_anonymous_args = 0
 501 0000 80B5     		push	{r7, lr}
 502              	.LCFI24:
 503              		.cfi_def_cfa_offset 8
 504              		.cfi_offset 7, -8
 505              		.cfi_offset 14, -4
 506 0002 82B0     		sub	sp, sp, #8
 507              	.LCFI25:
 508              		.cfi_def_cfa_offset 16
 509 0004 00AF     		add	r7, sp, #0
 510              	.LCFI26:
 511              		.cfi_def_cfa_register 7
 512 0006 7860     		str	r0, [r7, #4]
  65:../Exe3_Task_1.cpp **** 
  66:../Exe3_Task_1.cpp ****          {
  67:../Exe3_Task_1.cpp **** 
  68:../Exe3_Task_1.cpp ****         	 uartPort.init(115200);
 513              		.loc 4 68 0
 514 0008 40F20000 		movw	r0, #:lower16:_ZN5RODOS11uart_stdoutE
 515 000c C0F20000 		movt	r0, #:upper16:_ZN5RODOS11uart_stdoutE
 516 0010 4FF4E131 		mov	r1, #115200
 517 0014 FFF7FEFF 		bl	_ZN5RODOS8HAL_UART4initEj
  69:../Exe3_Task_1.cpp ****         	 uartPort.config(UART_PARAMETER_ENABLE_DMA,1);
 518              		.loc 4 69 0
 519 0018 40F20000 		movw	r0, #:lower16:_ZN5RODOS11uart_stdoutE
 520 001c C0F20000 		movt	r0, #:upper16:_ZN5RODOS11uart_stdoutE
 521 0020 4FF00201 		mov	r1, #2
 522 0024 4FF00102 		mov	r2, #1
 523 0028 FFF7FEFF 		bl	_ZN5RODOS8HAL_UART6configENS_19UART_PARAMETER_TYPEEi
  70:../Exe3_Task_1.cpp ****         	 TelecommandLED.init(true,1,0);
 524              		.loc 4 70 0
 525 002c 40F20000 		movw	r0, #:lower16:TelecommandLED
 526 0030 C0F20000 		movt	r0, #:upper16:TelecommandLED
 527 0034 4FF00101 		mov	r1, #1
 528 0038 4FF00102 		mov	r2, #1
 529 003c 4FF00003 		mov	r3, #0
 530 0040 FFF7FEFF 		bl	_ZN5RODOS8HAL_GPIO4initEbmm
  71:../Exe3_Task_1.cpp **** 
  72:../Exe3_Task_1.cpp **** 
  73:../Exe3_Task_1.cpp ****          }
 531              		.loc 4 73 0
 532 0044 07F10807 		add	r7, r7, #8
 533 0048 BD46     		mov	sp, r7
 534 004a 80BD     		pop	{r7, pc}
 535              		.cfi_endproc
 536              	.LFE188:
 538              		.section	.rodata
 539 00ab 00       		.align	2
 540              	.LC3:
 541 00ac 0A20476F 		.ascii	"\012 Going to Waiting mode 1\012\000"
 541      696E6720 
 541      746F2057 
 541      61697469 
 541      6E67206D 
 542              		.section	.text._ZN11Telecommand3runEv,"axG",%progbits,_ZN11Telecommand3runEv,comdat
 543              		.align	2
 544              		.weak	_ZN11Telecommand3runEv
 545              		.thumb
 546              		.thumb_func
 548              	_ZN11Telecommand3runEv:
 549              	.LFB189:
  74:../Exe3_Task_1.cpp **** 
  75:../Exe3_Task_1.cpp **** 
  76:../Exe3_Task_1.cpp **** void run()
 550              		.loc 4 76 0
 551              		.cfi_startproc
 552              		@ args = 0, pretend = 0, frame = 8
 553              		@ frame_needed = 1, uses_anonymous_args = 0
 554 0000 80B5     		push	{r7, lr}
 555              	.LCFI27:
 556              		.cfi_def_cfa_offset 8
 557              		.cfi_offset 7, -8
 558              		.cfi_offset 14, -4
 559 0002 82B0     		sub	sp, sp, #8
 560              	.LCFI28:
 561              		.cfi_def_cfa_offset 16
 562 0004 00AF     		add	r7, sp, #0
 563              	.LCFI29:
 564              		.cfi_def_cfa_register 7
 565 0006 7860     		str	r0, [r7, #4]
  77:../Exe3_Task_1.cpp **** 
  78:../Exe3_Task_1.cpp **** 
  79:../Exe3_Task_1.cpp **** {
  80:../Exe3_Task_1.cpp **** 
  81:../Exe3_Task_1.cpp ****          PRINTF("\n Going to Waiting mode 1\n");
 566              		.loc 4 81 0
 567 0008 40F20000 		movw	r0, #:lower16:.LC3
 568 000c C0F20000 		movt	r0, #:upper16:.LC3
 569 0010 FFF7FEFF 		bl	_ZN5RODOS6PRINTFEPKcz
 570              	.L35:
  82:../Exe3_Task_1.cpp ****           while(1)        {
  83:../Exe3_Task_1.cpp **** 
  84:../Exe3_Task_1.cpp ****         	   uartPort.suspendUntilDataReady();
 571              		.loc 4 84 0 discriminator 1
 572 0014 40F20000 		movw	r0, #:lower16:_ZN5RODOS11uart_stdoutE
 573 0018 C0F20000 		movt	r0, #:upper16:_ZN5RODOS11uart_stdoutE
 574 001c 4FF0FF32 		mov	r2, #-1
 575 0020 6FF00043 		mvn	r3, #-2147483648
 576 0024 FFF7FEFF 		bl	_ZN5RODOS18GenericIOInterface21suspendUntilDataReadyEx
  85:../Exe3_Task_1.cpp ****                TelecommandLED.setPins(~TelecommandLED.readPins());
 577              		.loc 4 85 0 discriminator 1
 578 0028 40F20000 		movw	r0, #:lower16:TelecommandLED
 579 002c C0F20000 		movt	r0, #:upper16:TelecommandLED
 580 0030 FFF7FEFF 		bl	_ZN5RODOS8HAL_GPIO8readPinsEv
 581 0034 0346     		mov	r3, r0
 582 0036 6FEA0303 		mvn	r3, r3
 583 003a 40F20000 		movw	r0, #:lower16:TelecommandLED
 584 003e C0F20000 		movt	r0, #:upper16:TelecommandLED
 585 0042 1946     		mov	r1, r3
 586 0044 FFF7FEFF 		bl	_ZN5RODOS8HAL_GPIO7setPinsEm
  86:../Exe3_Task_1.cpp ****                uartPort.read(&RxBuffer,1);
 587              		.loc 4 86 0 discriminator 1
 588 0048 7B68     		ldr	r3, [r7, #4]
 589 004a 03F15D03 		add	r3, r3, #93
 590 004e 40F20000 		movw	r0, #:lower16:_ZN5RODOS11uart_stdoutE
 591 0052 C0F20000 		movt	r0, #:upper16:_ZN5RODOS11uart_stdoutE
 592 0056 1946     		mov	r1, r3
 593 0058 4FF00102 		mov	r2, #1
 594 005c FFF7FEFF 		bl	_ZN5RODOS8HAL_UART4readEPci
  87:../Exe3_Task_1.cpp ****                Decode(RxBuffer);
 595              		.loc 4 87 0 discriminator 1
 596 0060 7B68     		ldr	r3, [r7, #4]
 597 0062 93F85D30 		ldrb	r3, [r3, #93]	@ zero_extendqisi2
 598 0066 1846     		mov	r0, r3
 599 0068 FFF7FEFF 		bl	_Z6Decodeh
  82:../Exe3_Task_1.cpp ****           while(1)        {
 600              		.loc 4 82 0 discriminator 1
 601 006c D2E7     		b	.L35
 602              		.cfi_endproc
 603              	.LFE189:
 605 006e 00BF     		.section	.rodata
 606 00c7 00       		.align	2
 607              	.LC4:
 608 00c8 416E6F6E 		.ascii	"AnonymThread\000"
 608      796D5468 
 608      72656164 
 608      00
 609              		.section	.text._ZN11TelecommandC2Ev,"axG",%progbits,_ZN11TelecommandC5Ev,comdat
 610              		.align	2
 611              		.weak	_ZN11TelecommandC2Ev
 612              		.thumb
 613              		.thumb_func
 615              	_ZN11TelecommandC2Ev:
 616              	.LFB191:
  46:../Exe3_Task_1.cpp **** class Telecommand:public Thread
 617              		.loc 4 46 0
 618              		.cfi_startproc
 619              		@ args = 0, pretend = 0, frame = 8
 620              		@ frame_needed = 1, uses_anonymous_args = 0
 621 0000 80B5     		push	{r7, lr}
 622              	.LCFI30:
 623              		.cfi_def_cfa_offset 8
 624              		.cfi_offset 7, -8
 625              		.cfi_offset 14, -4
 626 0002 82B0     		sub	sp, sp, #8
 627              	.LCFI31:
 628              		.cfi_def_cfa_offset 16
 629 0004 00AF     		add	r7, sp, #0
 630              	.LCFI32:
 631              		.cfi_def_cfa_register 7
 632 0006 7860     		str	r0, [r7, #4]
 633              	.LBB6:
  46:../Exe3_Task_1.cpp **** class Telecommand:public Thread
 634              		.loc 4 46 0
 635 0008 7B68     		ldr	r3, [r7, #4]
 636 000a 1846     		mov	r0, r3
 637 000c 40F20001 		movw	r1, #:lower16:.LC4
 638 0010 C0F20001 		movt	r1, #:upper16:.LC4
 639 0014 4FF06402 		mov	r2, #100
 640 0018 4FF4FA63 		mov	r3, #2000
 641 001c FFF7FEFF 		bl	_ZN5RODOS6ThreadC2EPKcll
 642 0020 7B68     		ldr	r3, [r7, #4]
 643 0022 094A     		ldr	r2, .L39
 644 0024 1A60     		str	r2, [r3, #0]
 645 0026 7B68     		ldr	r3, [r7, #4]
 646 0028 4FF00002 		mov	r2, #0
 647 002c 1A66     		str	r2, [r3, #96]
 648 002e 7B68     		ldr	r3, [r7, #4]
 649 0030 03F16C03 		add	r3, r3, #108
 650 0034 1846     		mov	r0, r3
 651 0036 FFF7FEFF 		bl	_ZN13TelemetryDataC1Ev
 652              	.LBE6:
 653 003a 7B68     		ldr	r3, [r7, #4]
 654 003c 1846     		mov	r0, r3
 655 003e 07F10807 		add	r7, r7, #8
 656 0042 BD46     		mov	sp, r7
 657 0044 80BD     		pop	{r7, pc}
 658              	.L40:
 659 0046 00BF     		.align	2
 660              	.L39:
 661 0048 08000000 		.word	_ZTV11Telecommand+8
 662              		.cfi_endproc
 663              	.LFE191:
 665              		.weak	_ZN11TelecommandC1Ev
 666              		.thumb_set _ZN11TelecommandC1Ev,_ZN11TelecommandC2Ev
 667              		.global	a
 668              		.section	.bss.a,"aw",%nobits
 669              		.align	3
 672              	a:
 673 0000 00000000 		.space	128
 673      00000000 
 673      00000000 
 673      00000000 
 673      00000000 
 674              		.section	.text._ZN7Thread14initEv,"axG",%progbits,_ZN7Thread14initEv,comdat
 675              		.align	2
 676              		.weak	_ZN7Thread14initEv
 677              		.thumb
 678              		.thumb_func
 680              	_ZN7Thread14initEv:
 681              	.LFB193:
  88:../Exe3_Task_1.cpp **** 
  89:../Exe3_Task_1.cpp **** 
  90:../Exe3_Task_1.cpp ****           }
  91:../Exe3_Task_1.cpp **** }
  92:../Exe3_Task_1.cpp **** 
  93:../Exe3_Task_1.cpp **** }a;
  94:../Exe3_Task_1.cpp **** 
  95:../Exe3_Task_1.cpp **** 
  96:../Exe3_Task_1.cpp **** 
  97:../Exe3_Task_1.cpp **** 
  98:../Exe3_Task_1.cpp **** class Thread1:public Thread
  99:../Exe3_Task_1.cpp **** 
 100:../Exe3_Task_1.cpp **** {
 101:../Exe3_Task_1.cpp **** 
 102:../Exe3_Task_1.cpp **** public:
 103:../Exe3_Task_1.cpp **** 	int time1;
 104:../Exe3_Task_1.cpp **** 	void init()
 682              		.loc 4 104 0
 683              		.cfi_startproc
 684              		@ args = 0, pretend = 0, frame = 8
 685              		@ frame_needed = 1, uses_anonymous_args = 0
 686              		@ link register save eliminated.
 687 0000 80B4     		push	{r7}
 688              	.LCFI33:
 689              		.cfi_def_cfa_offset 4
 690              		.cfi_offset 7, -4
 691 0002 83B0     		sub	sp, sp, #12
 692              	.LCFI34:
 693              		.cfi_def_cfa_offset 16
 694 0004 00AF     		add	r7, sp, #0
 695              	.LCFI35:
 696              		.cfi_def_cfa_register 7
 697 0006 7860     		str	r0, [r7, #4]
 105:../Exe3_Task_1.cpp **** 	{}
 698              		.loc 4 105 0
 699 0008 07F10C07 		add	r7, r7, #12
 700 000c BD46     		mov	sp, r7
 701 000e 80BC     		pop	{r7}
 702 0010 7047     		bx	lr
 703              		.cfi_endproc
 704              	.LFE193:
 706 0012 00BF     		.section	.text._ZN7Thread13runEv,"axG",%progbits,_ZN7Thread13runEv,comdat
 707              		.align	2
 708              		.weak	_ZN7Thread13runEv
 709              		.thumb
 710              		.thumb_func
 712              	_ZN7Thread13runEv:
 713              	.LFB194:
 106:../Exe3_Task_1.cpp **** 
 107:../Exe3_Task_1.cpp **** 	void run()
 714              		.loc 4 107 0
 715              		.cfi_startproc
 716              		@ args = 0, pretend = 0, frame = 8
 717              		@ frame_needed = 1, uses_anonymous_args = 0
 718 0000 F0B5     		push	{r4, r5, r6, r7, lr}
 719              	.LCFI36:
 720              		.cfi_def_cfa_offset 20
 721              		.cfi_offset 4, -20
 722              		.cfi_offset 5, -16
 723              		.cfi_offset 6, -12
 724              		.cfi_offset 7, -8
 725              		.cfi_offset 14, -4
 726 0002 85B0     		sub	sp, sp, #20
 727              	.LCFI37:
 728              		.cfi_def_cfa_offset 40
 729 0004 02AF     		add	r7, sp, #8
 730              	.LCFI38:
 731              		.cfi_def_cfa 7, 32
 732 0006 7860     		str	r0, [r7, #4]
 108:../Exe3_Task_1.cpp **** 	{
 109:../Exe3_Task_1.cpp **** 
 110:../Exe3_Task_1.cpp **** 		TIME_LOOP(NOW(),time1*SECONDS)
 733              		.loc 4 110 0
 734 0008 7E68     		ldr	r6, [r7, #4]
 735 000a FFF7FEFF 		bl	_ZN5RODOS9TimeModel14getNanosecondsEv
 736 000e 0446     		mov	r4, r0
 737 0010 0D46     		mov	r5, r1
 738 0012 7B68     		ldr	r3, [r7, #4]
 739 0014 196D     		ldr	r1, [r3, #80]
 740 0016 0A46     		mov	r2, r1
 741 0018 4FEAE273 		asr	r3, r2, #31
 742 001c 4FF44A41 		mov	r1, #51712
 743 0020 C3F69A31 		movt	r1, 15258
 744 0024 01FB03F0 		mul	r0, r1, r3
 745 0028 4FF00001 		mov	r1, #0
 746 002c 01FB02F1 		mul	r1, r1, r2
 747 0030 4018     		adds	r0, r0, r1
 748 0032 4FF44A41 		mov	r1, #51712
 749 0036 C3F69A31 		movt	r1, 15258
 750 003a A2FB0123 		umull	r2, r3, r2, r1
 751 003e C118     		adds	r1, r0, r3
 752 0040 0B46     		mov	r3, r1
 753 0042 CDE90023 		strd	r2, [sp]
 754 0046 3046     		mov	r0, r6
 755 0048 2246     		mov	r2, r4
 756 004a 2B46     		mov	r3, r5
 757 004c FFF7FEFF 		bl	_ZN5RODOS6Thread15setPeriodicBeatExx
 758 0050 14E0     		b	.L43
 759              	.L44:
 111:../Exe3_Task_1.cpp **** 		{
 112:../Exe3_Task_1.cpp **** 			  TelemetryDataBuffer.get(tm);
 760              		.loc 4 112 0
 761 0052 40F20000 		movw	r0, #:lower16:TelemetryDataBuffer
 762 0056 C0F20000 		movt	r0, #:upper16:TelemetryDataBuffer
 763 005a 40F20001 		movw	r1, #:lower16:tm
 764 005e C0F20001 		movt	r1, #:upper16:tm
 765 0062 FFF7FEFF 		bl	_ZN5RODOS10CommBufferI13TelemetryDataE3getERS1_
 113:../Exe3_Task_1.cpp **** 			  time1 = tm.runing_time_t1;
 766              		.loc 4 113 0
 767 0066 40F20003 		movw	r3, #:lower16:tm
 768 006a C0F20003 		movt	r3, #:upper16:tm
 769 006e D3ED017A 		flds	s15, [r3, #4]
 770 0072 FDEEE77A 		ftosizs	s15, s15
 771 0076 7B68     		ldr	r3, [r7, #4]
 772 0078 C3ED147A 		fsts	s15, [r3, #80]	@ int
 773              	.L43:
 110:../Exe3_Task_1.cpp **** 		TIME_LOOP(NOW(),time1*SECONDS)
 774              		.loc 4 110 0 discriminator 1
 775 007c 7B68     		ldr	r3, [r7, #4]
 776 007e 1846     		mov	r0, r3
 777 0080 FFF7FEFF 		bl	_ZN5RODOS6Thread20suspendUntilNextBeatEv
 778 0084 4FF00103 		mov	r3, #1
 779 0088 002B     		cmp	r3, #0
 780 008a E2D1     		bne	.L44
 114:../Exe3_Task_1.cpp **** 			//  PRINTF("\n t1=%f",tm.runing_time_t1);
 115:../Exe3_Task_1.cpp **** 		}
 116:../Exe3_Task_1.cpp **** 	}
 781              		.loc 4 116 0
 782 008c 07F10C07 		add	r7, r7, #12
 783 0090 BD46     		mov	sp, r7
 784 0092 F0BD     		pop	{r4, r5, r6, r7, pc}
 785              		.cfi_endproc
 786              	.LFE194:
 788              		.section	.text._ZN7Thread1C2Ev,"axG",%progbits,_ZN7Thread1C5Ev,comdat
 789              		.align	2
 790              		.weak	_ZN7Thread1C2Ev
 791              		.thumb
 792              		.thumb_func
 794              	_ZN7Thread1C2Ev:
 795              	.LFB196:
  98:../Exe3_Task_1.cpp **** class Thread1:public Thread
 796              		.loc 4 98 0
 797              		.cfi_startproc
 798              		@ args = 0, pretend = 0, frame = 8
 799              		@ frame_needed = 1, uses_anonymous_args = 0
 800 0000 80B5     		push	{r7, lr}
 801              	.LCFI39:
 802              		.cfi_def_cfa_offset 8
 803              		.cfi_offset 7, -8
 804              		.cfi_offset 14, -4
 805 0002 82B0     		sub	sp, sp, #8
 806              	.LCFI40:
 807              		.cfi_def_cfa_offset 16
 808 0004 00AF     		add	r7, sp, #0
 809              	.LCFI41:
 810              		.cfi_def_cfa_register 7
 811 0006 7860     		str	r0, [r7, #4]
 812              	.LBB7:
  98:../Exe3_Task_1.cpp **** class Thread1:public Thread
 813              		.loc 4 98 0
 814 0008 7B68     		ldr	r3, [r7, #4]
 815 000a 1846     		mov	r0, r3
 816 000c 40F20001 		movw	r1, #:lower16:.LC4
 817 0010 C0F20001 		movt	r1, #:upper16:.LC4
 818 0014 4FF06402 		mov	r2, #100
 819 0018 4FF4FA63 		mov	r3, #2000
 820 001c FFF7FEFF 		bl	_ZN5RODOS6ThreadC2EPKcll
 821 0020 7B68     		ldr	r3, [r7, #4]
 822 0022 044A     		ldr	r2, .L48
 823 0024 1A60     		str	r2, [r3, #0]
 824              	.LBE7:
 825 0026 7B68     		ldr	r3, [r7, #4]
 826 0028 1846     		mov	r0, r3
 827 002a 07F10807 		add	r7, r7, #8
 828 002e BD46     		mov	sp, r7
 829 0030 80BD     		pop	{r7, pc}
 830              	.L49:
 831 0032 00BF     		.align	2
 832              	.L48:
 833 0034 08000000 		.word	_ZTV7Thread1+8
 834              		.cfi_endproc
 835              	.LFE196:
 837              		.weak	_ZN7Thread1C1Ev
 838              		.thumb_set _ZN7Thread1C1Ev,_ZN7Thread1C2Ev
 839              		.global	thread1
 840              		.section	.bss.thread1,"aw",%nobits
 841              		.align	3
 844              	thread1:
 845 0000 00000000 		.space	88
 845      00000000 
 845      00000000 
 845      00000000 
 845      00000000 
 846              		.section	.text._ZN7Thread24initEv,"axG",%progbits,_ZN7Thread24initEv,comdat
 847              		.align	2
 848              		.weak	_ZN7Thread24initEv
 849              		.thumb
 850              		.thumb_func
 852              	_ZN7Thread24initEv:
 853              	.LFB198:
 117:../Exe3_Task_1.cpp **** }thread1;
 118:../Exe3_Task_1.cpp **** 
 119:../Exe3_Task_1.cpp **** 
 120:../Exe3_Task_1.cpp **** class Thread2:public Thread
 121:../Exe3_Task_1.cpp **** 
 122:../Exe3_Task_1.cpp **** {
 123:../Exe3_Task_1.cpp **** 
 124:../Exe3_Task_1.cpp **** public:
 125:../Exe3_Task_1.cpp **** 	int time2 ;
 126:../Exe3_Task_1.cpp **** 	char telemetrystring[50]="Dummy Data";
 127:../Exe3_Task_1.cpp **** 	void init()
 854              		.loc 4 127 0
 855              		.cfi_startproc
 856              		@ args = 0, pretend = 0, frame = 8
 857              		@ frame_needed = 1, uses_anonymous_args = 0
 858              		@ link register save eliminated.
 859 0000 80B4     		push	{r7}
 860              	.LCFI42:
 861              		.cfi_def_cfa_offset 4
 862              		.cfi_offset 7, -4
 863 0002 83B0     		sub	sp, sp, #12
 864              	.LCFI43:
 865              		.cfi_def_cfa_offset 16
 866 0004 00AF     		add	r7, sp, #0
 867              	.LCFI44:
 868              		.cfi_def_cfa_register 7
 869 0006 7860     		str	r0, [r7, #4]
 128:../Exe3_Task_1.cpp **** 	{}
 870              		.loc 4 128 0
 871 0008 07F10C07 		add	r7, r7, #12
 872 000c BD46     		mov	sp, r7
 873 000e 80BC     		pop	{r7}
 874 0010 7047     		bx	lr
 875              		.cfi_endproc
 876              	.LFE198:
 878              		.global	__aeabi_f2d
 879 0012 00BF     		.section	.rodata
 880 00d5 000000   		.align	2
 881              	.LC5:
 882 00d8 24732566 		.ascii	"$s%f#$a%f#b%f#\000"
 882      23246125 
 882      66236225 
 882      662300
 883 00e7 00       		.align	2
 884              	.LC6:
 885 00e8 0A205468 		.ascii	"\012 The TelemetryData = %s\015 \000"
 885      65205465 
 885      6C656D65 
 885      74727944 
 885      61746120 
 886              		.section	.text._ZN7Thread23runEv,"axG",%progbits,_ZN7Thread23runEv,comdat
 887              		.align	2
 888              		.weak	_ZN7Thread23runEv
 889              		.thumb
 890              		.thumb_func
 892              	_ZN7Thread23runEv:
 893              	.LFB199:
 129:../Exe3_Task_1.cpp **** 
 130:../Exe3_Task_1.cpp **** 	void run()
 894              		.loc 4 130 0
 895              		.cfi_startproc
 896              		@ args = 0, pretend = 0, frame = 8
 897              		@ frame_needed = 1, uses_anonymous_args = 0
 898 0000 2DE9F043 		push	{r4, r5, r6, r7, r8, r9, lr}
 899              	.LCFI45:
 900              		.cfi_def_cfa_offset 28
 901              		.cfi_offset 4, -28
 902              		.cfi_offset 5, -24
 903              		.cfi_offset 6, -20
 904              		.cfi_offset 7, -16
 905              		.cfi_offset 8, -12
 906              		.cfi_offset 9, -8
 907              		.cfi_offset 14, -4
 908 0004 87B0     		sub	sp, sp, #28
 909              	.LCFI46:
 910              		.cfi_def_cfa_offset 56
 911 0006 04AF     		add	r7, sp, #16
 912              	.LCFI47:
 913              		.cfi_def_cfa 7, 40
 914 0008 7860     		str	r0, [r7, #4]
 131:../Exe3_Task_1.cpp **** 	{
 132:../Exe3_Task_1.cpp **** 		TelemetryDataBuffer.get(tm);
 915              		.loc 4 132 0
 916 000a 40F20000 		movw	r0, #:lower16:TelemetryDataBuffer
 917 000e C0F20000 		movt	r0, #:upper16:TelemetryDataBuffer
 918 0012 40F20001 		movw	r1, #:lower16:tm
 919 0016 C0F20001 		movt	r1, #:upper16:tm
 920 001a FFF7FEFF 		bl	_ZN5RODOS10CommBufferI13TelemetryDataE3getERS1_
 133:../Exe3_Task_1.cpp **** 		time2 = tm.runing_time_t2;
 921              		.loc 4 133 0
 922 001e 40F20003 		movw	r3, #:lower16:tm
 923 0022 C0F20003 		movt	r3, #:upper16:tm
 924 0026 D3ED027A 		flds	s15, [r3, #8]
 925 002a FDEEE77A 		ftosizs	s15, s15
 926 002e 7B68     		ldr	r3, [r7, #4]
 927 0030 C3ED147A 		fsts	s15, [r3, #80]	@ int
 134:../Exe3_Task_1.cpp **** 		TIME_LOOP(NOW(),time2*SECONDS)
 928              		.loc 4 134 0
 929 0034 7E68     		ldr	r6, [r7, #4]
 930 0036 FFF7FEFF 		bl	_ZN5RODOS9TimeModel14getNanosecondsEv
 931 003a 0446     		mov	r4, r0
 932 003c 0D46     		mov	r5, r1
 933 003e 7B68     		ldr	r3, [r7, #4]
 934 0040 196D     		ldr	r1, [r3, #80]
 935 0042 0A46     		mov	r2, r1
 936 0044 4FEAE273 		asr	r3, r2, #31
 937 0048 4FF44A41 		mov	r1, #51712
 938 004c C3F69A31 		movt	r1, 15258
 939 0050 01FB03F0 		mul	r0, r1, r3
 940 0054 4FF00001 		mov	r1, #0
 941 0058 01FB02F1 		mul	r1, r1, r2
 942 005c 4018     		adds	r0, r0, r1
 943 005e 4FF44A41 		mov	r1, #51712
 944 0062 C3F69A31 		movt	r1, 15258
 945 0066 A2FB0123 		umull	r2, r3, r2, r1
 946 006a C118     		adds	r1, r0, r3
 947 006c 0B46     		mov	r3, r1
 948 006e CDE90023 		strd	r2, [sp]
 949 0072 3046     		mov	r0, r6
 950 0074 2246     		mov	r2, r4
 951 0076 2B46     		mov	r3, r5
 952 0078 FFF7FEFF 		bl	_ZN5RODOS6Thread15setPeriodicBeatExx
 953 007c 37E0     		b	.L52
 954              	.L53:
 135:../Exe3_Task_1.cpp **** 		{
 136:../Exe3_Task_1.cpp **** 
 137:../Exe3_Task_1.cpp **** 	    sprintf(telemetrystring,"$s%f#$a%f#b%f#",tm.stepsize,tm.runing_time_t1,tm.runing_time_t2);
 955              		.loc 4 137 0
 956 007e 7B68     		ldr	r3, [r7, #4]
 957 0080 03F15406 		add	r6, r3, #84
 958 0084 40F20003 		movw	r3, #:lower16:tm
 959 0088 C0F20003 		movt	r3, #:upper16:tm
 960 008c 1B68     		ldr	r3, [r3, #0]	@ float
 961 008e 1846     		mov	r0, r3	@ float
 962 0090 FFF7FEFF 		bl	__aeabi_f2d
 963 0094 0446     		mov	r4, r0
 964 0096 0D46     		mov	r5, r1
 965 0098 40F20003 		movw	r3, #:lower16:tm
 966 009c C0F20003 		movt	r3, #:upper16:tm
 967 00a0 5B68     		ldr	r3, [r3, #4]	@ float
 968 00a2 1846     		mov	r0, r3	@ float
 969 00a4 FFF7FEFF 		bl	__aeabi_f2d
 970 00a8 8046     		mov	r8, r0
 971 00aa 8946     		mov	r9, r1
 972 00ac 40F20003 		movw	r3, #:lower16:tm
 973 00b0 C0F20003 		movt	r3, #:upper16:tm
 974 00b4 9B68     		ldr	r3, [r3, #8]	@ float
 975 00b6 1846     		mov	r0, r3	@ float
 976 00b8 FFF7FEFF 		bl	__aeabi_f2d
 977 00bc 0246     		mov	r2, r0
 978 00be 0B46     		mov	r3, r1
 979 00c0 CDE90089 		strd	r8, [sp]
 980 00c4 CDE90223 		strd	r2, [sp, #8]
 981 00c8 3046     		mov	r0, r6
 982 00ca 40F20001 		movw	r1, #:lower16:.LC5
 983 00ce C0F20001 		movt	r1, #:upper16:.LC5
 984 00d2 2246     		mov	r2, r4
 985 00d4 2B46     		mov	r3, r5
 986 00d6 FFF7FEFF 		bl	sprintf
 138:../Exe3_Task_1.cpp **** 
 139:../Exe3_Task_1.cpp **** 	    // PRINTF("\n t2=%f",tm.runing_time_t2);
 140:../Exe3_Task_1.cpp **** 	    PRINTF("\n The TelemetryData = %s\r ",telemetrystring);
 987              		.loc 4 140 0
 988 00da 7B68     		ldr	r3, [r7, #4]
 989 00dc 03F15403 		add	r3, r3, #84
 990 00e0 40F20000 		movw	r0, #:lower16:.LC6
 991 00e4 C0F20000 		movt	r0, #:upper16:.LC6
 992 00e8 1946     		mov	r1, r3
 993 00ea FFF7FEFF 		bl	_ZN5RODOS6PRINTFEPKcz
 994              	.L52:
 134:../Exe3_Task_1.cpp **** 		TIME_LOOP(NOW(),time2*SECONDS)
 995              		.loc 4 134 0 discriminator 1
 996 00ee 7B68     		ldr	r3, [r7, #4]
 997 00f0 1846     		mov	r0, r3
 998 00f2 FFF7FEFF 		bl	_ZN5RODOS6Thread20suspendUntilNextBeatEv
 999 00f6 4FF00103 		mov	r3, #1
 1000 00fa 002B     		cmp	r3, #0
 1001 00fc BFD1     		bne	.L53
 141:../Exe3_Task_1.cpp **** 		}
 142:../Exe3_Task_1.cpp **** 
 143:../Exe3_Task_1.cpp **** 	}
 1002              		.loc 4 143 0
 1003 00fe 07F10C07 		add	r7, r7, #12
 1004 0102 BD46     		mov	sp, r7
 1005 0104 BDE8F083 		pop	{r4, r5, r6, r7, r8, r9, pc}
 1006              		.cfi_endproc
 1007              	.LFE199:
 1009              		.section	.rodata
 1010 0103 00       		.align	2
 1011              	.LC7:
 1012 0104 44756D6D 		.ascii	"Dummy Data\000"
 1012      79204461 
 1012      746100
 1013 010f 00000000 		.space	39
 1013      00000000 
 1013      00000000 
 1013      00000000 
 1013      00000000 
 1014              		.section	.text._ZN7Thread2C2Ev,"axG",%progbits,_ZN7Thread2C5Ev,comdat
 1015              		.align	2
 1016              		.weak	_ZN7Thread2C2Ev
 1017              		.thumb
 1018              		.thumb_func
 1020              	_ZN7Thread2C2Ev:
 1021              	.LFB201:
 120:../Exe3_Task_1.cpp **** class Thread2:public Thread
 1022              		.loc 4 120 0
 1023              		.cfi_startproc
 1024              		@ args = 0, pretend = 0, frame = 8
 1025              		@ frame_needed = 1, uses_anonymous_args = 0
 1026 0000 90B5     		push	{r4, r7, lr}
 1027              	.LCFI48:
 1028              		.cfi_def_cfa_offset 12
 1029              		.cfi_offset 4, -12
 1030              		.cfi_offset 7, -8
 1031              		.cfi_offset 14, -4
 1032 0002 83B0     		sub	sp, sp, #12
 1033              	.LCFI49:
 1034              		.cfi_def_cfa_offset 24
 1035 0004 00AF     		add	r7, sp, #0
 1036              	.LCFI50:
 1037              		.cfi_def_cfa_register 7
 1038 0006 7860     		str	r0, [r7, #4]
 1039              	.LBB8:
 120:../Exe3_Task_1.cpp **** class Thread2:public Thread
 1040              		.loc 4 120 0
 1041 0008 7B68     		ldr	r3, [r7, #4]
 1042 000a 1846     		mov	r0, r3
 1043 000c 40F20001 		movw	r1, #:lower16:.LC4
 1044 0010 C0F20001 		movt	r1, #:upper16:.LC4
 1045 0014 4FF06402 		mov	r2, #100
 1046 0018 4FF4FA63 		mov	r3, #2000
 1047 001c FFF7FEFF 		bl	_ZN5RODOS6ThreadC2EPKcll
 1048 0020 7B68     		ldr	r3, [r7, #4]
 1049 0022 104A     		ldr	r2, .L57
 1050 0024 1A60     		str	r2, [r3, #0]
 1051 0026 7C68     		ldr	r4, [r7, #4]
 1052 0028 40F20002 		movw	r2, #:lower16:.LC7
 1053 002c C0F20002 		movt	r2, #:upper16:.LC7
 1054 0030 04F15403 		add	r3, r4, #84
 1055 0034 07CA     		ldmia	r2, {r0, r1, r2}
 1056 0036 03C3     		stmia	r3!, {r0, r1}
 1057 0038 1A80     		strh	r2, [r3, #0]	@ movhi
 1058 003a 03F10203 		add	r3, r3, #2
 1059 003e 4FEA1242 		lsr	r2, r2, #16
 1060 0042 1A70     		strb	r2, [r3, #0]
 1061 0044 04F15F02 		add	r2, r4, #95
 1062 0048 4FF02703 		mov	r3, #39
 1063 004c 1046     		mov	r0, r2
 1064 004e 4FF00001 		mov	r1, #0
 1065 0052 1A46     		mov	r2, r3
 1066 0054 FFF7FEFF 		bl	memset
 1067              	.LBE8:
 1068 0058 7B68     		ldr	r3, [r7, #4]
 1069 005a 1846     		mov	r0, r3
 1070 005c 07F10C07 		add	r7, r7, #12
 1071 0060 BD46     		mov	sp, r7
 1072 0062 90BD     		pop	{r4, r7, pc}
 1073              	.L58:
 1074              		.align	2
 1075              	.L57:
 1076 0064 08000000 		.word	_ZTV7Thread2+8
 1077              		.cfi_endproc
 1078              	.LFE201:
 1080              		.weak	_ZN7Thread2C1Ev
 1081              		.thumb_set _ZN7Thread2C1Ev,_ZN7Thread2C2Ev
 1082              		.global	thread2
 1083              		.section	.bss.thread2,"aw",%nobits
 1084              		.align	3
 1087              	thread2:
 1088 0000 00000000 		.space	136
 1088      00000000 
 1088      00000000 
 1088      00000000 
 1088      00000000 
 1089              		.section	.text._Z6Decodeh,"ax",%progbits
 1090              		.align	2
 1091              		.global	_Z6Decodeh
 1092              		.thumb
 1093              		.thumb_func
 1095              	_Z6Decodeh:
 1096              	.LFB203:
 144:../Exe3_Task_1.cpp **** }thread2;
 145:../Exe3_Task_1.cpp **** 
 146:../Exe3_Task_1.cpp **** 
 147:../Exe3_Task_1.cpp **** 
 148:../Exe3_Task_1.cpp **** uint8_t Decode(uint8_t RxBuffer)
 149:../Exe3_Task_1.cpp **** {
 1097              		.loc 4 149 0
 1098              		.cfi_startproc
 1099              		@ args = 0, pretend = 0, frame = 16
 1100              		@ frame_needed = 1, uses_anonymous_args = 0
 1101 0000 80B5     		push	{r7, lr}
 1102              	.LCFI51:
 1103              		.cfi_def_cfa_offset 8
 1104              		.cfi_offset 7, -8
 1105              		.cfi_offset 14, -4
 1106 0002 84B0     		sub	sp, sp, #16
 1107              	.LCFI52:
 1108              		.cfi_def_cfa_offset 24
 1109 0004 00AF     		add	r7, sp, #0
 1110              	.LCFI53:
 1111              		.cfi_def_cfa_register 7
 1112 0006 0346     		mov	r3, r0
 1113 0008 FB71     		strb	r3, [r7, #7]
 1114              	.LBB9:
 150:../Exe3_Task_1.cpp ****         uint8_t success=0;
 1115              		.loc 4 150 0
 1116 000a 4FF00003 		mov	r3, #0
 1117 000e FB73     		strb	r3, [r7, #15]
 151:../Exe3_Task_1.cpp **** 
 152:../Exe3_Task_1.cpp ****         switch (ReceiveState){
 1118              		.loc 4 152 0
 1119 0010 40F20003 		movw	r3, #:lower16:ReceiveState
 1120 0014 C0F20003 		movt	r3, #:upper16:ReceiveState
 1121 0018 1B78     		ldrb	r3, [r3, #0]	@ zero_extendqisi2
 1122 001a 012B     		cmp	r3, #1
 1123 001c 25D0     		beq	.L62
 1124 001e 022B     		cmp	r3, #2
 1125 0020 51D0     		beq	.L63
 1126 0022 002B     		cmp	r3, #0
 1127 0024 40F03981 		bne	.L81
 1128              	.L61:
 153:../Exe3_Task_1.cpp **** 
 154:../Exe3_Task_1.cpp ****         case 0:
 155:../Exe3_Task_1.cpp ****                 SignFlag=0;
 1129              		.loc 4 155 0
 1130 0028 40F20003 		movw	r3, #:lower16:SignFlag
 1131 002c C0F20003 		movt	r3, #:upper16:SignFlag
 1132 0030 4FF00002 		mov	r2, #0
 1133 0034 1A70     		strb	r2, [r3, #0]
 156:../Exe3_Task_1.cpp ****                 DotFlag=0;
 1134              		.loc 4 156 0
 1135 0036 40F20003 		movw	r3, #:lower16:DotFlag
 1136 003a C0F20003 		movt	r3, #:upper16:DotFlag
 1137 003e 4FF00002 		mov	r2, #0
 1138 0042 1A70     		strb	r2, [r3, #0]
 157:../Exe3_Task_1.cpp ****                 DataIndex=0;
 1139              		.loc 4 157 0
 1140 0044 40F20003 		movw	r3, #:lower16:DataIndex
 1141 0048 C0F20003 		movt	r3, #:upper16:DataIndex
 1142 004c 4FF00002 		mov	r2, #0
 1143 0050 1A70     		strb	r2, [r3, #0]
 158:../Exe3_Task_1.cpp ****                 if (RxBuffer==TelecommandStart)
 1144              		.loc 4 158 0
 1145 0052 FB79     		ldrb	r3, [r7, #7]	@ zero_extendqisi2
 1146 0054 242B     		cmp	r3, #36
 1147 0056 40F02881 		bne	.L82
 159:../Exe3_Task_1.cpp ****                 {
 160:../Exe3_Task_1.cpp ****                         ReceiveState=1;
 1148              		.loc 4 160 0
 1149 005a 40F20003 		movw	r3, #:lower16:ReceiveState
 1150 005e C0F20003 		movt	r3, #:upper16:ReceiveState
 1151 0062 4FF00102 		mov	r2, #1
 1152 0066 1A70     		strb	r2, [r3, #0]
 161:../Exe3_Task_1.cpp ****                 }
 162:../Exe3_Task_1.cpp ****                 break;
 1153              		.loc 4 162 0
 1154 0068 1FE1     		b	.L82
 1155              	.L62:
 163:../Exe3_Task_1.cpp **** 
 164:../Exe3_Task_1.cpp ****         case 1:
 165:../Exe3_Task_1.cpp ****                 SignFlag=0;
 1156              		.loc 4 165 0
 1157 006a 40F20003 		movw	r3, #:lower16:SignFlag
 1158 006e C0F20003 		movt	r3, #:upper16:SignFlag
 1159 0072 4FF00002 		mov	r2, #0
 1160 0076 1A70     		strb	r2, [r3, #0]
 166:../Exe3_Task_1.cpp ****                 DotFlag=0;
 1161              		.loc 4 166 0
 1162 0078 40F20003 		movw	r3, #:lower16:DotFlag
 1163 007c C0F20003 		movt	r3, #:upper16:DotFlag
 1164 0080 4FF00002 		mov	r2, #0
 1165 0084 1A70     		strb	r2, [r3, #0]
 167:../Exe3_Task_1.cpp ****                 DataIndex=0;
 1166              		.loc 4 167 0
 1167 0086 40F20003 		movw	r3, #:lower16:DataIndex
 1168 008a C0F20003 		movt	r3, #:upper16:DataIndex
 1169 008e 4FF00002 		mov	r2, #0
 1170 0092 1A70     		strb	r2, [r3, #0]
 168:../Exe3_Task_1.cpp ****                 if (RxBuffer==TelecommandStart)
 1171              		.loc 4 168 0
 1172 0094 FB79     		ldrb	r3, [r7, #7]	@ zero_extendqisi2
 1173 0096 242B     		cmp	r3, #36
 1174 0098 07D1     		bne	.L66
 169:../Exe3_Task_1.cpp ****                 {
 170:../Exe3_Task_1.cpp ****                         ReceiveState=1;
 1175              		.loc 4 170 0
 1176 009a 40F20003 		movw	r3, #:lower16:ReceiveState
 1177 009e C0F20003 		movt	r3, #:upper16:ReceiveState
 1178 00a2 4FF00102 		mov	r2, #1
 1179 00a6 1A70     		strb	r2, [r3, #0]
 171:../Exe3_Task_1.cpp ****                 }
 172:../Exe3_Task_1.cpp ****                 else {
 173:../Exe3_Task_1.cpp ****                         TelecommandID = RxBuffer;
 174:../Exe3_Task_1.cpp ****                         ReceiveState = 2;
 175:../Exe3_Task_1.cpp ****                 }
 176:../Exe3_Task_1.cpp ****                 break;
 1180              		.loc 4 176 0
 1181 00a8 00E1     		b	.L65
 1182              	.L66:
 173:../Exe3_Task_1.cpp ****                         TelecommandID = RxBuffer;
 1183              		.loc 4 173 0
 1184 00aa 40F20003 		movw	r3, #:lower16:TelecommandID
 1185 00ae C0F20003 		movt	r3, #:upper16:TelecommandID
 1186 00b2 FA79     		ldrb	r2, [r7, #7]
 1187 00b4 1A70     		strb	r2, [r3, #0]
 174:../Exe3_Task_1.cpp ****                         ReceiveState = 2;
 1188              		.loc 4 174 0
 1189 00b6 40F20003 		movw	r3, #:lower16:ReceiveState
 1190 00ba C0F20003 		movt	r3, #:upper16:ReceiveState
 1191 00be 4FF00202 		mov	r2, #2
 1192 00c2 1A70     		strb	r2, [r3, #0]
 1193              		.loc 4 176 0
 1194 00c4 F2E0     		b	.L65
 1195              	.L63:
 177:../Exe3_Task_1.cpp **** 
 178:../Exe3_Task_1.cpp ****         case 2:
 179:../Exe3_Task_1.cpp ****                 if (RxBuffer=='+' || RxBuffer=='-')
 1196              		.loc 4 179 0
 1197 00c6 FB79     		ldrb	r3, [r7, #7]	@ zero_extendqisi2
 1198 00c8 2B2B     		cmp	r3, #43
 1199 00ca 02D0     		beq	.L68
 1200              		.loc 4 179 0 is_stmt 0 discriminator 1
 1201 00cc FB79     		ldrb	r3, [r7, #7]	@ zero_extendqisi2
 1202 00ce 2D2B     		cmp	r3, #45
 1203 00d0 3DD1     		bne	.L69
 1204              	.L68:
 180:../Exe3_Task_1.cpp ****                 {
 181:../Exe3_Task_1.cpp ****                         if (SignFlag==0 && DataIndex==0)
 1205              		.loc 4 181 0 is_stmt 1
 1206 00d2 40F20003 		movw	r3, #:lower16:SignFlag
 1207 00d6 C0F20003 		movt	r3, #:upper16:SignFlag
 1208 00da 1B78     		ldrb	r3, [r3, #0]	@ zero_extendqisi2
 1209 00dc 002B     		cmp	r3, #0
 1210 00de 2ED1     		bne	.L70
 1211              		.loc 4 181 0 is_stmt 0 discriminator 1
 1212 00e0 40F20003 		movw	r3, #:lower16:DataIndex
 1213 00e4 C0F20003 		movt	r3, #:upper16:DataIndex
 1214 00e8 1B78     		ldrb	r3, [r3, #0]	@ zero_extendqisi2
 1215 00ea 002B     		cmp	r3, #0
 1216 00ec 27D1     		bne	.L70
 182:../Exe3_Task_1.cpp ****                                 {
 183:../Exe3_Task_1.cpp ****                                 SignFlag=1;
 1217              		.loc 4 183 0 is_stmt 1
 1218 00ee 40F20003 		movw	r3, #:lower16:SignFlag
 1219 00f2 C0F20003 		movt	r3, #:upper16:SignFlag
 1220 00f6 4FF00102 		mov	r2, #1
 1221 00fa 1A70     		strb	r2, [r3, #0]
 184:../Exe3_Task_1.cpp ****                                 ReceiveData[DataIndex]=RxBuffer;
 1222              		.loc 4 184 0
 1223 00fc 40F20003 		movw	r3, #:lower16:DataIndex
 1224 0100 C0F20003 		movt	r3, #:upper16:DataIndex
 1225 0104 1B78     		ldrb	r3, [r3, #0]	@ zero_extendqisi2
 1226 0106 1A46     		mov	r2, r3
 1227 0108 40F20003 		movw	r3, #:lower16:ReceiveData
 1228 010c C0F20003 		movt	r3, #:upper16:ReceiveData
 1229 0110 F979     		ldrb	r1, [r7, #7]
 1230 0112 9954     		strb	r1, [r3, r2]
 185:../Exe3_Task_1.cpp ****                                 DataIndex++;
 1231              		.loc 4 185 0
 1232 0114 40F20003 		movw	r3, #:lower16:DataIndex
 1233 0118 C0F20003 		movt	r3, #:upper16:DataIndex
 1234 011c 1B78     		ldrb	r3, [r3, #0]	@ zero_extendqisi2
 1235 011e 03F10103 		add	r3, r3, #1
 1236 0122 DAB2     		uxtb	r2, r3
 1237 0124 40F20003 		movw	r3, #:lower16:DataIndex
 1238 0128 C0F20003 		movt	r3, #:upper16:DataIndex
 1239 012c 1A70     		strb	r2, [r3, #0]
 186:../Exe3_Task_1.cpp ****                                 ReceiveState = 2;
 1240              		.loc 4 186 0
 1241 012e 40F20003 		movw	r3, #:lower16:ReceiveState
 1242 0132 C0F20003 		movt	r3, #:upper16:ReceiveState
 1243 0136 4FF00202 		mov	r2, #2
 1244 013a 1A70     		strb	r2, [r3, #0]
 181:../Exe3_Task_1.cpp ****                         if (SignFlag==0 && DataIndex==0)
 1245              		.loc 4 181 0
 1246 013c ACE0     		b	.L72
 1247              	.L70:
 187:../Exe3_Task_1.cpp ****                                 }
 188:../Exe3_Task_1.cpp ****                         else {ReceiveState = 0;}
 1248              		.loc 4 188 0
 1249 013e 40F20003 		movw	r3, #:lower16:ReceiveState
 1250 0142 C0F20003 		movt	r3, #:upper16:ReceiveState
 1251 0146 4FF00002 		mov	r2, #0
 1252 014a 1A70     		strb	r2, [r3, #0]
 181:../Exe3_Task_1.cpp ****                         if (SignFlag==0 && DataIndex==0)
 1253              		.loc 4 181 0
 1254 014c A4E0     		b	.L72
 1255              	.L69:
 189:../Exe3_Task_1.cpp ****                 }
 190:../Exe3_Task_1.cpp ****                 else if (RxBuffer=='.')
 1256              		.loc 4 190 0
 1257 014e FB79     		ldrb	r3, [r7, #7]	@ zero_extendqisi2
 1258 0150 2E2B     		cmp	r3, #46
 1259 0152 36D1     		bne	.L73
 191:../Exe3_Task_1.cpp ****                 {
 192:../Exe3_Task_1.cpp ****                         if (DotFlag==0)
 1260              		.loc 4 192 0
 1261 0154 40F20003 		movw	r3, #:lower16:DotFlag
 1262 0158 C0F20003 		movt	r3, #:upper16:DotFlag
 1263 015c 1B78     		ldrb	r3, [r3, #0]	@ zero_extendqisi2
 1264 015e 002B     		cmp	r3, #0
 1265 0160 27D1     		bne	.L74
 193:../Exe3_Task_1.cpp ****                                 {
 194:../Exe3_Task_1.cpp ****                                 DotFlag=1;
 1266              		.loc 4 194 0
 1267 0162 40F20003 		movw	r3, #:lower16:DotFlag
 1268 0166 C0F20003 		movt	r3, #:upper16:DotFlag
 1269 016a 4FF00102 		mov	r2, #1
 1270 016e 1A70     		strb	r2, [r3, #0]
 195:../Exe3_Task_1.cpp ****                                 ReceiveData[DataIndex]=RxBuffer;
 1271              		.loc 4 195 0
 1272 0170 40F20003 		movw	r3, #:lower16:DataIndex
 1273 0174 C0F20003 		movt	r3, #:upper16:DataIndex
 1274 0178 1B78     		ldrb	r3, [r3, #0]	@ zero_extendqisi2
 1275 017a 1A46     		mov	r2, r3
 1276 017c 40F20003 		movw	r3, #:lower16:ReceiveData
 1277 0180 C0F20003 		movt	r3, #:upper16:ReceiveData
 1278 0184 F979     		ldrb	r1, [r7, #7]
 1279 0186 9954     		strb	r1, [r3, r2]
 196:../Exe3_Task_1.cpp ****                                 DataIndex++;
 1280              		.loc 4 196 0
 1281 0188 40F20003 		movw	r3, #:lower16:DataIndex
 1282 018c C0F20003 		movt	r3, #:upper16:DataIndex
 1283 0190 1B78     		ldrb	r3, [r3, #0]	@ zero_extendqisi2
 1284 0192 03F10103 		add	r3, r3, #1
 1285 0196 DAB2     		uxtb	r2, r3
 1286 0198 40F20003 		movw	r3, #:lower16:DataIndex
 1287 019c C0F20003 		movt	r3, #:upper16:DataIndex
 1288 01a0 1A70     		strb	r2, [r3, #0]
 197:../Exe3_Task_1.cpp ****                                 ReceiveState = 2;
 1289              		.loc 4 197 0
 1290 01a2 40F20003 		movw	r3, #:lower16:ReceiveState
 1291 01a6 C0F20003 		movt	r3, #:upper16:ReceiveState
 1292 01aa 4FF00202 		mov	r2, #2
 1293 01ae 1A70     		strb	r2, [r3, #0]
 198:../Exe3_Task_1.cpp ****                                 }
 199:../Exe3_Task_1.cpp ****                         else {ReceiveState = 0;}
 200:../Exe3_Task_1.cpp ****                 }
 201:../Exe3_Task_1.cpp ****                 else if (RxBuffer>='0' && RxBuffer<='9')
 202:../Exe3_Task_1.cpp ****                 {
 203:../Exe3_Task_1.cpp ****                     ReceiveData[DataIndex]=RxBuffer;
 204:../Exe3_Task_1.cpp ****                     DataIndex++;
 205:../Exe3_Task_1.cpp ****                         if (DataIndex > MaxLength) {ReceiveState = 0;}
 206:../Exe3_Task_1.cpp ****                         else {ReceiveState = 2;}
 207:../Exe3_Task_1.cpp ****                 }
 208:../Exe3_Task_1.cpp ****                 else if (RxBuffer==TelecommandStart)
 209:../Exe3_Task_1.cpp ****                 {
 210:../Exe3_Task_1.cpp ****                         ReceiveState=1;
 211:../Exe3_Task_1.cpp ****                 }
 212:../Exe3_Task_1.cpp ****                 else if (RxBuffer==TelecommandStop)
 213:../Exe3_Task_1.cpp ****                 {
 214:../Exe3_Task_1.cpp ****                         ReceiveData[DataIndex]= 0x00;
 215:../Exe3_Task_1.cpp ****                         success=Command(TelecommandID);
 216:../Exe3_Task_1.cpp ****                         ReceiveState=0;
 217:../Exe3_Task_1.cpp ****                     //    PRINTF("The recieved command =%c and data=%f" ,TelecommandID,(atof(Receiv
 218:../Exe3_Task_1.cpp ****                 }
 219:../Exe3_Task_1.cpp ****                 else { ReceiveState=0;}
 220:../Exe3_Task_1.cpp ****                 break;
 1294              		.loc 4 220 0
 1295 01b0 7CE0     		b	.L65
 1296              	.L74:
 199:../Exe3_Task_1.cpp ****                         else {ReceiveState = 0;}
 1297              		.loc 4 199 0
 1298 01b2 40F20003 		movw	r3, #:lower16:ReceiveState
 1299 01b6 C0F20003 		movt	r3, #:upper16:ReceiveState
 1300 01ba 4FF00002 		mov	r2, #0
 1301 01be 1A70     		strb	r2, [r3, #0]
 1302              		.loc 4 220 0
 1303 01c0 74E0     		b	.L65
 1304              	.L73:
 201:../Exe3_Task_1.cpp ****                 else if (RxBuffer>='0' && RxBuffer<='9')
 1305              		.loc 4 201 0
 1306 01c2 FB79     		ldrb	r3, [r7, #7]	@ zero_extendqisi2
 1307 01c4 2F2B     		cmp	r3, #47
 1308 01c6 32D9     		bls	.L75
 201:../Exe3_Task_1.cpp ****                 else if (RxBuffer>='0' && RxBuffer<='9')
 1309              		.loc 4 201 0 is_stmt 0 discriminator 1
 1310 01c8 FB79     		ldrb	r3, [r7, #7]	@ zero_extendqisi2
 1311 01ca 392B     		cmp	r3, #57
 1312 01cc 2FD8     		bhi	.L75
 203:../Exe3_Task_1.cpp ****                     ReceiveData[DataIndex]=RxBuffer;
 1313              		.loc 4 203 0 is_stmt 1
 1314 01ce 40F20003 		movw	r3, #:lower16:DataIndex
 1315 01d2 C0F20003 		movt	r3, #:upper16:DataIndex
 1316 01d6 1B78     		ldrb	r3, [r3, #0]	@ zero_extendqisi2
 1317 01d8 1A46     		mov	r2, r3
 1318 01da 40F20003 		movw	r3, #:lower16:ReceiveData
 1319 01de C0F20003 		movt	r3, #:upper16:ReceiveData
 1320 01e2 F979     		ldrb	r1, [r7, #7]
 1321 01e4 9954     		strb	r1, [r3, r2]
 204:../Exe3_Task_1.cpp ****                     DataIndex++;
 1322              		.loc 4 204 0
 1323 01e6 40F20003 		movw	r3, #:lower16:DataIndex
 1324 01ea C0F20003 		movt	r3, #:upper16:DataIndex
 1325 01ee 1B78     		ldrb	r3, [r3, #0]	@ zero_extendqisi2
 1326 01f0 03F10103 		add	r3, r3, #1
 1327 01f4 DAB2     		uxtb	r2, r3
 1328 01f6 40F20003 		movw	r3, #:lower16:DataIndex
 1329 01fa C0F20003 		movt	r3, #:upper16:DataIndex
 1330 01fe 1A70     		strb	r2, [r3, #0]
 205:../Exe3_Task_1.cpp ****                         if (DataIndex > MaxLength) {ReceiveState = 0;}
 1331              		.loc 4 205 0
 1332 0200 40F20003 		movw	r3, #:lower16:DataIndex
 1333 0204 C0F20003 		movt	r3, #:upper16:DataIndex
 1334 0208 1B78     		ldrb	r3, [r3, #0]	@ zero_extendqisi2
 1335 020a 0C2B     		cmp	r3, #12
 1336 020c 07D9     		bls	.L76
 205:../Exe3_Task_1.cpp ****                         if (DataIndex > MaxLength) {ReceiveState = 0;}
 1337              		.loc 4 205 0 is_stmt 0 discriminator 1
 1338 020e 40F20003 		movw	r3, #:lower16:ReceiveState
 1339 0212 C0F20003 		movt	r3, #:upper16:ReceiveState
 1340 0216 4FF00002 		mov	r2, #0
 1341 021a 1A70     		strb	r2, [r3, #0]
 1342 021c 3CE0     		b	.L72
 1343              	.L76:
 206:../Exe3_Task_1.cpp ****                         else {ReceiveState = 2;}
 1344              		.loc 4 206 0 is_stmt 1
 1345 021e 40F20003 		movw	r3, #:lower16:ReceiveState
 1346 0222 C0F20003 		movt	r3, #:upper16:ReceiveState
 1347 0226 4FF00202 		mov	r2, #2
 1348 022a 1A70     		strb	r2, [r3, #0]
 205:../Exe3_Task_1.cpp ****                         if (DataIndex > MaxLength) {ReceiveState = 0;}
 1349              		.loc 4 205 0
 1350 022c 34E0     		b	.L72
 1351              	.L75:
 208:../Exe3_Task_1.cpp ****                 else if (RxBuffer==TelecommandStart)
 1352              		.loc 4 208 0
 1353 022e FB79     		ldrb	r3, [r7, #7]	@ zero_extendqisi2
 1354 0230 242B     		cmp	r3, #36
 1355 0232 07D1     		bne	.L78
 210:../Exe3_Task_1.cpp ****                         ReceiveState=1;
 1356              		.loc 4 210 0
 1357 0234 40F20003 		movw	r3, #:lower16:ReceiveState
 1358 0238 C0F20003 		movt	r3, #:upper16:ReceiveState
 1359 023c 4FF00102 		mov	r2, #1
 1360 0240 1A70     		strb	r2, [r3, #0]
 1361              		.loc 4 220 0
 1362 0242 33E0     		b	.L65
 1363              	.L78:
 212:../Exe3_Task_1.cpp ****                 else if (RxBuffer==TelecommandStop)
 1364              		.loc 4 212 0
 1365 0244 FB79     		ldrb	r3, [r7, #7]	@ zero_extendqisi2
 1366 0246 232B     		cmp	r3, #35
 1367 0248 1ED1     		bne	.L79
 214:../Exe3_Task_1.cpp ****                         ReceiveData[DataIndex]= 0x00;
 1368              		.loc 4 214 0
 1369 024a 40F20003 		movw	r3, #:lower16:DataIndex
 1370 024e C0F20003 		movt	r3, #:upper16:DataIndex
 1371 0252 1B78     		ldrb	r3, [r3, #0]	@ zero_extendqisi2
 1372 0254 1A46     		mov	r2, r3
 1373 0256 40F20003 		movw	r3, #:lower16:ReceiveData
 1374 025a C0F20003 		movt	r3, #:upper16:ReceiveData
 1375 025e 4FF00001 		mov	r1, #0
 1376 0262 9954     		strb	r1, [r3, r2]
 215:../Exe3_Task_1.cpp ****                         success=Command(TelecommandID);
 1377              		.loc 4 215 0
 1378 0264 40F20003 		movw	r3, #:lower16:TelecommandID
 1379 0268 C0F20003 		movt	r3, #:upper16:TelecommandID
 1380 026c 1B78     		ldrb	r3, [r3, #0]	@ zero_extendqisi2
 1381 026e 1846     		mov	r0, r3
 1382 0270 FFF7FEFF 		bl	_Z7Commandh
 1383 0274 0346     		mov	r3, r0
 1384 0276 FB73     		strb	r3, [r7, #15]
 216:../Exe3_Task_1.cpp ****                         ReceiveState=0;
 1385              		.loc 4 216 0
 1386 0278 40F20003 		movw	r3, #:lower16:ReceiveState
 1387 027c C0F20003 		movt	r3, #:upper16:ReceiveState
 1388 0280 4FF00002 		mov	r2, #0
 1389 0284 1A70     		strb	r2, [r3, #0]
 1390              		.loc 4 220 0
 1391 0286 11E0     		b	.L65
 1392              	.L79:
 219:../Exe3_Task_1.cpp ****                 else { ReceiveState=0;}
 1393              		.loc 4 219 0
 1394 0288 40F20003 		movw	r3, #:lower16:ReceiveState
 1395 028c C0F20003 		movt	r3, #:upper16:ReceiveState
 1396 0290 4FF00002 		mov	r2, #0
 1397 0294 1A70     		strb	r2, [r3, #0]
 1398              		.loc 4 220 0
 1399 0296 09E0     		b	.L65
 1400              	.L72:
 1401 0298 08E0     		b	.L65
 1402              	.L81:
 221:../Exe3_Task_1.cpp ****         default:
 222:../Exe3_Task_1.cpp ****                 ReceiveState=0;
 1403              		.loc 4 222 0
 1404 029a 40F20003 		movw	r3, #:lower16:ReceiveState
 1405 029e C0F20003 		movt	r3, #:upper16:ReceiveState
 1406 02a2 4FF00002 		mov	r2, #0
 1407 02a6 1A70     		strb	r2, [r3, #0]
 223:../Exe3_Task_1.cpp ****                 break;
 1408              		.loc 4 223 0
 1409 02a8 00E0     		b	.L65
 1410              	.L82:
 162:../Exe3_Task_1.cpp ****                 break;
 1411              		.loc 4 162 0
 1412 02aa 00BF     		nop
 1413              	.L65:
 224:../Exe3_Task_1.cpp ****         }
 225:../Exe3_Task_1.cpp ****         return success;
 1414              		.loc 4 225 0
 1415 02ac FB7B     		ldrb	r3, [r7, #15]	@ zero_extendqisi2
 1416              	.LBE9:
 226:../Exe3_Task_1.cpp **** }
 1417              		.loc 4 226 0
 1418 02ae 1846     		mov	r0, r3
 1419 02b0 07F11007 		add	r7, r7, #16
 1420 02b4 BD46     		mov	sp, r7
 1421 02b6 80BD     		pop	{r7, pc}
 1422              		.cfi_endproc
 1423              	.LFE203:
 1425              		.global	__aeabi_d2f
 1426              		.section	.rodata
 1427 0136 0000     		.align	2
 1428              	.LC8:
 1429 0138 0A205570 		.ascii	"\012 Updating t1\015\000"
 1429      64617469 
 1429      6E672074 
 1429      310D00
 1430 0147 00       		.align	2
 1431              	.LC9:
 1432 0148 0A557064 		.ascii	"\012Updating t2\015\000"
 1432      6174696E 
 1432      67207432 
 1432      0D00
 1433              		.section	.text._Z7Commandh,"ax",%progbits
 1434              		.align	2
 1435              		.global	_Z7Commandh
 1436              		.thumb
 1437              		.thumb_func
 1439              	_Z7Commandh:
 1440              	.LFB204:
 227:../Exe3_Task_1.cpp **** 
 228:../Exe3_Task_1.cpp **** 
 229:../Exe3_Task_1.cpp **** 
 230:../Exe3_Task_1.cpp **** uint8_t Command(uint8_t TelecommandID)
 231:../Exe3_Task_1.cpp **** {
 1441              		.loc 4 231 0
 1442              		.cfi_startproc
 1443              		@ args = 0, pretend = 0, frame = 48
 1444              		@ frame_needed = 1, uses_anonymous_args = 0
 1445 0000 80B5     		push	{r7, lr}
 1446              	.LCFI54:
 1447              		.cfi_def_cfa_offset 8
 1448              		.cfi_offset 7, -8
 1449              		.cfi_offset 14, -4
 1450 0002 8CB0     		sub	sp, sp, #48
 1451              	.LCFI55:
 1452              		.cfi_def_cfa_offset 56
 1453 0004 00AF     		add	r7, sp, #0
 1454              	.LCFI56:
 1455              		.cfi_def_cfa_register 7
 1456 0006 0346     		mov	r3, r0
 1457 0008 FB71     		strb	r3, [r7, #7]
 1458              	.LBB10:
 232:../Exe3_Task_1.cpp ****         char string[40];
 233:../Exe3_Task_1.cpp **** 
 234:../Exe3_Task_1.cpp **** 
 235:../Exe3_Task_1.cpp **** 
 236:../Exe3_Task_1.cpp ****        switch (TelecommandID){
 1459              		.loc 4 236 0
 1460 000a FB79     		ldrb	r3, [r7, #7]	@ zero_extendqisi2
 1461 000c 622B     		cmp	r3, #98
 1462 000e 4CD0     		beq	.L86
 1463 0010 732B     		cmp	r3, #115
 1464 0012 02D0     		beq	.L87
 1465 0014 612B     		cmp	r3, #97
 1466 0016 21D0     		beq	.L85
 1467 0018 6EE0     		b	.L90
 1468              	.L87:
 237:../Exe3_Task_1.cpp **** 
 238:../Exe3_Task_1.cpp ****         case stepSize:
 239:../Exe3_Task_1.cpp ****         	     tm.stepsize=(atof(ReceiveData));
 1469              		.loc 4 239 0
 1470 001a 40F20000 		movw	r0, #:lower16:ReceiveData
 1471 001e C0F20000 		movt	r0, #:upper16:ReceiveData
 1472 0022 FFF7FEFF 		bl	atof
 1473 0026 0246     		mov	r2, r0
 1474 0028 0B46     		mov	r3, r1
 1475 002a 1046     		mov	r0, r2
 1476 002c 1946     		mov	r1, r3
 1477 002e FFF7FEFF 		bl	__aeabi_d2f
 1478 0032 0246     		mov	r2, r0	@ float
 1479 0034 40F20003 		movw	r3, #:lower16:tm
 1480 0038 C0F20003 		movt	r3, #:upper16:tm
 1481 003c 1A60     		str	r2, [r3, #0]	@ float
 240:../Exe3_Task_1.cpp ****         	     TelemetryDataTopic.publish(tm);
 1482              		.loc 4 240 0
 1483 003e 40F20000 		movw	r0, #:lower16:TelemetryDataTopic
 1484 0042 C0F20000 		movt	r0, #:upper16:TelemetryDataTopic
 1485 0046 40F20001 		movw	r1, #:lower16:tm
 1486 004a C0F20001 		movt	r1, #:upper16:tm
 1487 004e 4FF00102 		mov	r2, #1
 1488 0052 FFF7FEFF 		bl	_ZN5RODOS5TopicI13TelemetryDataE7publishERS1_b
 241:../Exe3_Task_1.cpp **** 
 242:../Exe3_Task_1.cpp ****                 return 1;
 1489              		.loc 4 242 0
 1490 0056 4FF00103 		mov	r3, #1
 1491 005a 4FE0     		b	.L89
 1492              	.L85:
 243:../Exe3_Task_1.cpp **** 
 244:../Exe3_Task_1.cpp ****         case t1:
 245:../Exe3_Task_1.cpp **** 				 tm.runing_time_t1=(atof(ReceiveData));
 1493              		.loc 4 245 0
 1494 005c 40F20000 		movw	r0, #:lower16:ReceiveData
 1495 0060 C0F20000 		movt	r0, #:upper16:ReceiveData
 1496 0064 FFF7FEFF 		bl	atof
 1497 0068 0246     		mov	r2, r0
 1498 006a 0B46     		mov	r3, r1
 1499 006c 1046     		mov	r0, r2
 1500 006e 1946     		mov	r1, r3
 1501 0070 FFF7FEFF 		bl	__aeabi_d2f
 1502 0074 0246     		mov	r2, r0	@ float
 1503 0076 40F20003 		movw	r3, #:lower16:tm
 1504 007a C0F20003 		movt	r3, #:upper16:tm
 1505 007e 5A60     		str	r2, [r3, #4]	@ float
 246:../Exe3_Task_1.cpp **** 				 PRINTF("\n Updating t1\r");
 1506              		.loc 4 246 0
 1507 0080 40F20000 		movw	r0, #:lower16:.LC8
 1508 0084 C0F20000 		movt	r0, #:upper16:.LC8
 1509 0088 FFF7FEFF 		bl	_ZN5RODOS6PRINTFEPKcz
 247:../Exe3_Task_1.cpp **** 				 TelemetryDataTopic.publish(tm);
 1510              		.loc 4 247 0
 1511 008c 40F20000 		movw	r0, #:lower16:TelemetryDataTopic
 1512 0090 C0F20000 		movt	r0, #:upper16:TelemetryDataTopic
 1513 0094 40F20001 		movw	r1, #:lower16:tm
 1514 0098 C0F20001 		movt	r1, #:upper16:tm
 1515 009c 4FF00102 		mov	r2, #1
 1516 00a0 FFF7FEFF 		bl	_ZN5RODOS5TopicI13TelemetryDataE7publishERS1_b
 248:../Exe3_Task_1.cpp ****                 return 1;
 1517              		.loc 4 248 0
 1518 00a4 4FF00103 		mov	r3, #1
 1519 00a8 28E0     		b	.L89
 1520              	.L86:
 249:../Exe3_Task_1.cpp **** 
 250:../Exe3_Task_1.cpp **** 
 251:../Exe3_Task_1.cpp ****         case t2:
 252:../Exe3_Task_1.cpp **** 				 tm.runing_time_t2=(atof(ReceiveData));
 1521              		.loc 4 252 0
 1522 00aa 40F20000 		movw	r0, #:lower16:ReceiveData
 1523 00ae C0F20000 		movt	r0, #:upper16:ReceiveData
 1524 00b2 FFF7FEFF 		bl	atof
 1525 00b6 0246     		mov	r2, r0
 1526 00b8 0B46     		mov	r3, r1
 1527 00ba 1046     		mov	r0, r2
 1528 00bc 1946     		mov	r1, r3
 1529 00be FFF7FEFF 		bl	__aeabi_d2f
 1530 00c2 0246     		mov	r2, r0	@ float
 1531 00c4 40F20003 		movw	r3, #:lower16:tm
 1532 00c8 C0F20003 		movt	r3, #:upper16:tm
 1533 00cc 9A60     		str	r2, [r3, #8]	@ float
 253:../Exe3_Task_1.cpp **** 				 PRINTF("\nUpdating t2\r");
 1534              		.loc 4 253 0
 1535 00ce 40F20000 		movw	r0, #:lower16:.LC9
 1536 00d2 C0F20000 		movt	r0, #:upper16:.LC9
 1537 00d6 FFF7FEFF 		bl	_ZN5RODOS6PRINTFEPKcz
 254:../Exe3_Task_1.cpp **** 				 TelemetryDataTopic.publish(tm);
 1538              		.loc 4 254 0
 1539 00da 40F20000 		movw	r0, #:lower16:TelemetryDataTopic
 1540 00de C0F20000 		movt	r0, #:upper16:TelemetryDataTopic
 1541 00e2 40F20001 		movw	r1, #:lower16:tm
 1542 00e6 C0F20001 		movt	r1, #:upper16:tm
 1543 00ea 4FF00102 		mov	r2, #1
 1544 00ee FFF7FEFF 		bl	_ZN5RODOS5TopicI13TelemetryDataE7publishERS1_b
 255:../Exe3_Task_1.cpp ****                 return 1;
 1545              		.loc 4 255 0
 1546 00f2 4FF00103 		mov	r3, #1
 1547 00f6 01E0     		b	.L89
 1548              	.L90:
 256:../Exe3_Task_1.cpp **** 
 257:../Exe3_Task_1.cpp ****         default:
 258:../Exe3_Task_1.cpp ****                 return 0;
 1549              		.loc 4 258 0
 1550 00f8 4FF00003 		mov	r3, #0
 1551              	.L89:
 1552              	.LBE10:
 259:../Exe3_Task_1.cpp ****         }
 260:../Exe3_Task_1.cpp **** 
 261:../Exe3_Task_1.cpp **** 
 262:../Exe3_Task_1.cpp **** }
 1553              		.loc 4 262 0
 1554 00fc 1846     		mov	r0, r3
 1555 00fe 07F13007 		add	r7, r7, #48
 1556 0102 BD46     		mov	sp, r7
 1557 0104 80BD     		pop	{r7, pc}
 1558              		.cfi_endproc
 1559              	.LFE204:
 1561 0106 00BF     		.section	.text._ZN5RODOS5TopicI13TelemetryDataEC2ElPKc,"axG",%progbits,_ZN5RODOS5TopicI13Telemetry
 1562              		.align	2
 1563              		.weak	_ZN5RODOS5TopicI13TelemetryDataEC2ElPKc
 1564              		.thumb
 1565              		.thumb_func
 1567              	_ZN5RODOS5TopicI13TelemetryDataEC2ElPKc:
 1568              	.LFB210:
 110:/home/rodos/Discovery_WorkSpace_Updated/rodos/api/topic.h **** 
 111:/home/rodos/Discovery_WorkSpace_Updated/rodos/api/topic.h ****     /** publish/distribute the message to all listeners to the given serviceId.
 112:/home/rodos/Discovery_WorkSpace_Updated/rodos/api/topic.h ****      * if shallSendToNetwork the message will be forwarded to gateways too (default).
 113:/home/rodos/Discovery_WorkSpace_Updated/rodos/api/topic.h ****      * warning 1: Never use it from an interrupt server.
 114:/home/rodos/Discovery_WorkSpace_Updated/rodos/api/topic.h ****      * warning 2: the pointer to msg will be distributed. A Subscriber may modify its content
 115:/home/rodos/Discovery_WorkSpace_Updated/rodos/api/topic.h ****      */
 116:/home/rodos/Discovery_WorkSpace_Updated/rodos/api/topic.h ****     unsigned long publish(void *msg, bool shallSendToNetwork = true,
 117:/home/rodos/Discovery_WorkSpace_Updated/rodos/api/topic.h ****     		NetMsgInfo* netMsgInfo = 0);
 118:/home/rodos/Discovery_WorkSpace_Updated/rodos/api/topic.h **** 
 119:/home/rodos/Discovery_WorkSpace_Updated/rodos/api/topic.h ****     /** Usually we use the length of the corresponding data type associated to the topic
 120:/home/rodos/Discovery_WorkSpace_Updated/rodos/api/topic.h ****      * but for some exceptional cases, like for strings, we may send shorter messages.
 121:/home/rodos/Discovery_WorkSpace_Updated/rodos/api/topic.h ****      * warning 1: Never use it from an interrupt server.
 122:/home/rodos/Discovery_WorkSpace_Updated/rodos/api/topic.h ****      * warning 2: the pointer to msg will be distributed. A Subscriber may modify its content
 123:/home/rodos/Discovery_WorkSpace_Updated/rodos/api/topic.h ****      */
 124:/home/rodos/Discovery_WorkSpace_Updated/rodos/api/topic.h ****     unsigned long publishMsgPart(void *msg, unsigned int lenToSend,
 125:/home/rodos/Discovery_WorkSpace_Updated/rodos/api/topic.h ****             bool shallSendToNetwork = true, NetMsgInfo* netMsgInfo = 0);
 126:/home/rodos/Discovery_WorkSpace_Updated/rodos/api/topic.h **** 
 127:/home/rodos/Discovery_WorkSpace_Updated/rodos/api/topic.h ****     /** Publishfrom interrupts uses no semaphores as protection!
 128:/home/rodos/Discovery_WorkSpace_Updated/rodos/api/topic.h ****       * the Subscriber shall use no thread operations
 129:/home/rodos/Discovery_WorkSpace_Updated/rodos/api/topic.h ****       * the Subscriber shall be as short as possible
 130:/home/rodos/Discovery_WorkSpace_Updated/rodos/api/topic.h ****       */
 131:/home/rodos/Discovery_WorkSpace_Updated/rodos/api/topic.h ****     void publishFromInterrupt(void *any, int len = 0);
 132:/home/rodos/Discovery_WorkSpace_Updated/rodos/api/topic.h **** 
 133:/home/rodos/Discovery_WorkSpace_Updated/rodos/api/topic.h ****     /** request is like publish, but the calles expects data back instead of sending it.
 134:/home/rodos/Discovery_WorkSpace_Updated/rodos/api/topic.h ****       * The internal mechanims is identical the same like publisch, the middleware will
 135:/home/rodos/Discovery_WorkSpace_Updated/rodos/api/topic.h ****       * call puuters from subscribers. Such puters shall proivde data instad of geting it.
 136:/home/rodos/Discovery_WorkSpace_Updated/rodos/api/topic.h ****       **/
 137:/home/rodos/Discovery_WorkSpace_Updated/rodos/api/topic.h **** 
 138:/home/rodos/Discovery_WorkSpace_Updated/rodos/api/topic.h ****      inline unsigned long requestLocal(void *msg) { return publish(msg, false); }
 139:/home/rodos/Discovery_WorkSpace_Updated/rodos/api/topic.h **** 
 140:/home/rodos/Discovery_WorkSpace_Updated/rodos/api/topic.h ****      /// return 0 it not found
 141:/home/rodos/Discovery_WorkSpace_Updated/rodos/api/topic.h ****      static TopicInterface* findTopicId(long wantedTopicId);
 142:/home/rodos/Discovery_WorkSpace_Updated/rodos/api/topic.h **** 
 143:/home/rodos/Discovery_WorkSpace_Updated/rodos/api/topic.h ****      void setTopicFilter(TopicFilter* filter);
 144:/home/rodos/Discovery_WorkSpace_Updated/rodos/api/topic.h **** 
 145:/home/rodos/Discovery_WorkSpace_Updated/rodos/api/topic.h **** };
 146:/home/rodos/Discovery_WorkSpace_Updated/rodos/api/topic.h **** 
 147:/home/rodos/Discovery_WorkSpace_Updated/rodos/api/topic.h **** 
 148:/home/rodos/Discovery_WorkSpace_Updated/rodos/api/topic.h **** /**
 149:/home/rodos/Discovery_WorkSpace_Updated/rodos/api/topic.h ****  *  @class Topic
 150:/home/rodos/Discovery_WorkSpace_Updated/rodos/api/topic.h ****  *  @brief Topic  to patch publisher and subscribers
 151:/home/rodos/Discovery_WorkSpace_Updated/rodos/api/topic.h ****  *
 152:/home/rodos/Discovery_WorkSpace_Updated/rodos/api/topic.h ****  *  The middleware communication is based on the publisher/subscriber protocol.
 153:/home/rodos/Discovery_WorkSpace_Updated/rodos/api/topic.h ****  *  Publishers make messages public under a given topic.
 154:/home/rodos/Discovery_WorkSpace_Updated/rodos/api/topic.h ****  *  Subscriber to a given topic get all messages which are published
 155:/home/rodos/Discovery_WorkSpace_Updated/rodos/api/topic.h ****  *  under the given topic.
 156:/home/rodos/Discovery_WorkSpace_Updated/rodos/api/topic.h ****  * To establish a transfer path, both,
 157:/home/rodos/Discovery_WorkSpace_Updated/rodos/api/topic.h ****  * publisher and subscriber have to share the same topic.
 158:/home/rodos/Discovery_WorkSpace_Updated/rodos/api/topic.h ****  *
 159:/home/rodos/Discovery_WorkSpace_Updated/rodos/api/topic.h ****  * A Topic consists of a pair: a data-type and an integer representing
 160:/home/rodos/Discovery_WorkSpace_Updated/rodos/api/topic.h ****  * the topic identifier.
 161:/home/rodos/Discovery_WorkSpace_Updated/rodos/api/topic.h ****  *
 162:/home/rodos/Discovery_WorkSpace_Updated/rodos/api/topic.h ****  * Topic provides methods to publish and distribute messages.
 163:/home/rodos/Discovery_WorkSpace_Updated/rodos/api/topic.h ****  *
 164:/home/rodos/Discovery_WorkSpace_Updated/rodos/api/topic.h ****  * The current implementation accepts only shorts as topicId
 165:/home/rodos/Discovery_WorkSpace_Updated/rodos/api/topic.h ****  * because of limitations on the FPGA (Hardware) Middleware
 166:/home/rodos/Discovery_WorkSpace_Updated/rodos/api/topic.h ****  * implementation.
 167:/home/rodos/Discovery_WorkSpace_Updated/rodos/api/topic.h ****  *
 168:/home/rodos/Discovery_WorkSpace_Updated/rodos/api/topic.h ****  * topic id 0 is reserved for middleware messages (eg. topic lists)
 169:/home/rodos/Discovery_WorkSpace_Updated/rodos/api/topic.h ****  * if you use topic id -1 the system will generate an id according
 170:/home/rodos/Discovery_WorkSpace_Updated/rodos/api/topic.h ****  * to the name used in the constructor. This number will be
 171:/home/rodos/Discovery_WorkSpace_Updated/rodos/api/topic.h ****  * compatible with all hardware implementations. We recommend
 172:/home/rodos/Discovery_WorkSpace_Updated/rodos/api/topic.h ****  * to use this feature. This is compatible with our hardware
 173:/home/rodos/Discovery_WorkSpace_Updated/rodos/api/topic.h ****  * networks.
 174:/home/rodos/Discovery_WorkSpace_Updated/rodos/api/topic.h ****  *
 175:/home/rodos/Discovery_WorkSpace_Updated/rodos/api/topic.h ****  */
 176:/home/rodos/Discovery_WorkSpace_Updated/rodos/api/topic.h **** 
 177:/home/rodos/Discovery_WorkSpace_Updated/rodos/api/topic.h **** /*************************************/
 178:/home/rodos/Discovery_WorkSpace_Updated/rodos/api/topic.h **** 
 179:/home/rodos/Discovery_WorkSpace_Updated/rodos/api/topic.h **** template <class Type>
 180:/home/rodos/Discovery_WorkSpace_Updated/rodos/api/topic.h **** class Topic : public TopicInterface {
 181:/home/rodos/Discovery_WorkSpace_Updated/rodos/api/topic.h **** public:
 182:/home/rodos/Discovery_WorkSpace_Updated/rodos/api/topic.h **** 
 183:/home/rodos/Discovery_WorkSpace_Updated/rodos/api/topic.h ****     /** constructor, parameter name is used for debug purposes and as hash value
 184:/home/rodos/Discovery_WorkSpace_Updated/rodos/api/topic.h ****       * to generate a topic id if it was defined as -1. This is the proposed
 185:/home/rodos/Discovery_WorkSpace_Updated/rodos/api/topic.h ****        * method.
 186:/home/rodos/Discovery_WorkSpace_Updated/rodos/api/topic.h ****       */
 187:/home/rodos/Discovery_WorkSpace_Updated/rodos/api/topic.h ****     Topic(long id, const char* name) : TopicInterface(id, sizeof(Type), name) { }
 1569              		.loc 1 187 0
 1570              		.cfi_startproc
 1571              		@ args = 0, pretend = 0, frame = 16
 1572              		@ frame_needed = 1, uses_anonymous_args = 0
 1573 0000 80B5     		push	{r7, lr}
 1574              	.LCFI57:
 1575              		.cfi_def_cfa_offset 8
 1576              		.cfi_offset 7, -8
 1577              		.cfi_offset 14, -4
 1578 0002 84B0     		sub	sp, sp, #16
 1579              	.LCFI58:
 1580              		.cfi_def_cfa_offset 24
 1581 0004 00AF     		add	r7, sp, #0
 1582              	.LCFI59:
 1583              		.cfi_def_cfa_register 7
 1584 0006 F860     		str	r0, [r7, #12]
 1585 0008 B960     		str	r1, [r7, #8]
 1586 000a 7A60     		str	r2, [r7, #4]
 1587              	.LBB11:
 1588              		.loc 1 187 0
 1589 000c FB68     		ldr	r3, [r7, #12]
 1590 000e 1846     		mov	r0, r3
 1591 0010 B968     		ldr	r1, [r7, #8]
 1592 0012 4FF00C02 		mov	r2, #12
 1593 0016 7B68     		ldr	r3, [r7, #4]
 1594 0018 FFF7FEFF 		bl	_ZN5RODOS14TopicInterfaceC2EllPKc
 1595 001c FB68     		ldr	r3, [r7, #12]
 1596 001e 044A     		ldr	r2, .L94
 1597 0020 1A60     		str	r2, [r3, #0]
 1598              	.LBE11:
 1599 0022 FB68     		ldr	r3, [r7, #12]
 1600 0024 1846     		mov	r0, r3
 1601 0026 07F11007 		add	r7, r7, #16
 1602 002a BD46     		mov	sp, r7
 1603 002c 80BD     		pop	{r7, pc}
 1604              	.L95:
 1605 002e 00BF     		.align	2
 1606              	.L94:
 1607 0030 08000000 		.word	_ZTVN5RODOS5TopicI13TelemetryDataEE+8
 1608              		.cfi_endproc
 1609              	.LFE210:
 1611              		.weak	_ZN5RODOS5TopicI13TelemetryDataEC1ElPKc
 1612              		.thumb_set _ZN5RODOS5TopicI13TelemetryDataEC1ElPKc,_ZN5RODOS5TopicI13TelemetryDataEC2ElPKc
 1613              		.section	.text._ZN5RODOS6PutterC2Ev,"axG",%progbits,_ZN5RODOS6PutterC5Ev,comdat
 1614              		.align	2
 1615              		.weak	_ZN5RODOS6PutterC2Ev
 1616              		.thumb
 1617              		.thumb_func
 1619              	_ZN5RODOS6PutterC2Ev:
 1620              	.LFB214:
  69:/home/rodos/Discovery_WorkSpace_Updated/rodos/api/putter.h **** class Putter {
 1621              		.loc 3 69 0
 1622              		.cfi_startproc
 1623              		@ args = 0, pretend = 0, frame = 8
 1624              		@ frame_needed = 1, uses_anonymous_args = 0
 1625              		@ link register save eliminated.
 1626 0000 80B4     		push	{r7}
 1627              	.LCFI60:
 1628              		.cfi_def_cfa_offset 4
 1629              		.cfi_offset 7, -4
 1630 0002 83B0     		sub	sp, sp, #12
 1631              	.LCFI61:
 1632              		.cfi_def_cfa_offset 16
 1633 0004 00AF     		add	r7, sp, #0
 1634              	.LCFI62:
 1635              		.cfi_def_cfa_register 7
 1636 0006 7860     		str	r0, [r7, #4]
 1637              	.LBB12:
  69:/home/rodos/Discovery_WorkSpace_Updated/rodos/api/putter.h **** class Putter {
 1638              		.loc 3 69 0
 1639 0008 7B68     		ldr	r3, [r7, #4]
 1640 000a 044A     		ldr	r2, .L99
 1641 000c 1A60     		str	r2, [r3, #0]
 1642              	.LBE12:
 1643 000e 7B68     		ldr	r3, [r7, #4]
 1644 0010 1846     		mov	r0, r3
 1645 0012 07F10C07 		add	r7, r7, #12
 1646 0016 BD46     		mov	sp, r7
 1647 0018 80BC     		pop	{r7}
 1648 001a 7047     		bx	lr
 1649              	.L100:
 1650              		.align	2
 1651              	.L99:
 1652 001c 08000000 		.word	_ZTVN5RODOS6PutterE+8
 1653              		.cfi_endproc
 1654              	.LFE214:
 1656              		.weak	_ZN5RODOS6PutterC1Ev
 1657              		.thumb_set _ZN5RODOS6PutterC1Ev,_ZN5RODOS6PutterC2Ev
 1658              		.section	.text._ZN5RODOS10CommBufferI13TelemetryDataEC2Ev,"axG",%progbits,_ZN5RODOS10CommBufferI13
 1659              		.align	2
 1660              		.weak	_ZN5RODOS10CommBufferI13TelemetryDataEC2Ev
 1661              		.thumb
 1662              		.thumb_func
 1664              	_ZN5RODOS10CommBufferI13TelemetryDataEC2Ev:
 1665              	.LFB216:
 1666              		.file 5 "/home/rodos/Discovery_WorkSpace_Updated/rodos/api/commbuffer.h"
   1:/home/rodos/Discovery_WorkSpace_Updated/rodos/api/commbuffer.h **** 
   2:/home/rodos/Discovery_WorkSpace_Updated/rodos/api/commbuffer.h **** 
   3:/home/rodos/Discovery_WorkSpace_Updated/rodos/api/commbuffer.h **** /*********************************************************** Copyright 
   4:/home/rodos/Discovery_WorkSpace_Updated/rodos/api/commbuffer.h ****  **
   5:/home/rodos/Discovery_WorkSpace_Updated/rodos/api/commbuffer.h ****  ** Copyright (c) 2008, German Aerospace Center (DLR)
   6:/home/rodos/Discovery_WorkSpace_Updated/rodos/api/commbuffer.h ****  ** All rights reserved.
   7:/home/rodos/Discovery_WorkSpace_Updated/rodos/api/commbuffer.h ****  ** 
   8:/home/rodos/Discovery_WorkSpace_Updated/rodos/api/commbuffer.h ****  ** Redistribution and use in source and binary forms, with or without
   9:/home/rodos/Discovery_WorkSpace_Updated/rodos/api/commbuffer.h ****  ** modification, are permitted provided that the following conditions are
  10:/home/rodos/Discovery_WorkSpace_Updated/rodos/api/commbuffer.h ****  ** met:
  11:/home/rodos/Discovery_WorkSpace_Updated/rodos/api/commbuffer.h ****  ** 
  12:/home/rodos/Discovery_WorkSpace_Updated/rodos/api/commbuffer.h ****  ** 1 Redistributions of source code must retain the above copyright
  13:/home/rodos/Discovery_WorkSpace_Updated/rodos/api/commbuffer.h ****  **   notice, this list of conditions and the following disclaimer.
  14:/home/rodos/Discovery_WorkSpace_Updated/rodos/api/commbuffer.h ****  ** 
  15:/home/rodos/Discovery_WorkSpace_Updated/rodos/api/commbuffer.h ****  ** 2 Redistributions in binary form must reproduce the above copyright
  16:/home/rodos/Discovery_WorkSpace_Updated/rodos/api/commbuffer.h ****  **   notice, this list of conditions and the following disclaimer in the
  17:/home/rodos/Discovery_WorkSpace_Updated/rodos/api/commbuffer.h ****  **   documentation and/or other materials provided with the
  18:/home/rodos/Discovery_WorkSpace_Updated/rodos/api/commbuffer.h ****  **   distribution.
  19:/home/rodos/Discovery_WorkSpace_Updated/rodos/api/commbuffer.h ****  ** 
  20:/home/rodos/Discovery_WorkSpace_Updated/rodos/api/commbuffer.h ****  ** 3 Neither the name of the German Aerospace Center nor the names of
  21:/home/rodos/Discovery_WorkSpace_Updated/rodos/api/commbuffer.h ****  **   its contributors may be used to endorse or promote products derived
  22:/home/rodos/Discovery_WorkSpace_Updated/rodos/api/commbuffer.h ****  **   from this software without specific prior written permission.
  23:/home/rodos/Discovery_WorkSpace_Updated/rodos/api/commbuffer.h ****  ** 
  24:/home/rodos/Discovery_WorkSpace_Updated/rodos/api/commbuffer.h ****  ** THIS SOFTWARE IS PROVIDED BY THE COPYRIGHT HOLDERS AND CONTRIBUTORS
  25:/home/rodos/Discovery_WorkSpace_Updated/rodos/api/commbuffer.h ****  ** "AS IS" AND ANY EXPRESS OR IMPLIED WARRANTIES, INCLUDING, BUT NOT
  26:/home/rodos/Discovery_WorkSpace_Updated/rodos/api/commbuffer.h ****  ** LIMITED TO, THE IMPLIED WARRANTIES OF MERCHANTABILITY AND FITNESS FOR
  27:/home/rodos/Discovery_WorkSpace_Updated/rodos/api/commbuffer.h ****  ** A PARTICULAR PURPOSE ARE DISCLAIMED. IN NO EVENT SHALL THE COPYRIGHT
  28:/home/rodos/Discovery_WorkSpace_Updated/rodos/api/commbuffer.h ****  ** OWNER OR CONTRIBUTORS BE LIABLE FOR ANY DIRECT, INDIRECT, INCIDENTAL,
  29:/home/rodos/Discovery_WorkSpace_Updated/rodos/api/commbuffer.h ****  ** SPECIAL, EXEMPLARY, OR CONSEQUENTIAL DAMAGES (INCLUDING, BUT NOT
  30:/home/rodos/Discovery_WorkSpace_Updated/rodos/api/commbuffer.h ****  ** LIMITED TO, PROCUREMENT OF SUBSTITUTE GOODS OR SERVICES; LOSS OF USE,
  31:/home/rodos/Discovery_WorkSpace_Updated/rodos/api/commbuffer.h ****  ** DATA, OR PROFITS; OR BUSINESS INTERRUPTION) HOWEVER CAUSED AND ON ANY
  32:/home/rodos/Discovery_WorkSpace_Updated/rodos/api/commbuffer.h ****  ** THEORY OF LIABILITY, WHETHER IN CONTRACT, STRICT LIABILITY, OR TORT
  33:/home/rodos/Discovery_WorkSpace_Updated/rodos/api/commbuffer.h ****  ** (INCLUDING NEGLIGENCE OR OTHERWISE) ARISING IN ANY WAY OUT OF THE USE
  34:/home/rodos/Discovery_WorkSpace_Updated/rodos/api/commbuffer.h ****  ** OF THIS SOFTWARE, EVEN IF ADVISED OF THE POSSIBILITY OF SUCH DAMAGE.
  35:/home/rodos/Discovery_WorkSpace_Updated/rodos/api/commbuffer.h ****  **  
  36:/home/rodos/Discovery_WorkSpace_Updated/rodos/api/commbuffer.h ****  ****************************************************************************/
  37:/home/rodos/Discovery_WorkSpace_Updated/rodos/api/commbuffer.h **** 
  38:/home/rodos/Discovery_WorkSpace_Updated/rodos/api/commbuffer.h **** 
  39:/home/rodos/Discovery_WorkSpace_Updated/rodos/api/commbuffer.h **** /**
  40:/home/rodos/Discovery_WorkSpace_Updated/rodos/api/commbuffer.h ****  * @file commbuffer.h
  41:/home/rodos/Discovery_WorkSpace_Updated/rodos/api/commbuffer.h ****  * @date 2008/05/25 16:20
  42:/home/rodos/Discovery_WorkSpace_Updated/rodos/api/commbuffer.h ****  * @author Sergio Montenegro, Lutz Dittrich
  43:/home/rodos/Discovery_WorkSpace_Updated/rodos/api/commbuffer.h ****  *
  44:/home/rodos/Discovery_WorkSpace_Updated/rodos/api/commbuffer.h ****  * Copyright 2008 DLR
  45:/home/rodos/Discovery_WorkSpace_Updated/rodos/api/commbuffer.h ****  *
  46:/home/rodos/Discovery_WorkSpace_Updated/rodos/api/commbuffer.h ****  * @brief simple buffer for asynchronous communication (header)
  47:/home/rodos/Discovery_WorkSpace_Updated/rodos/api/commbuffer.h ****  */
  48:/home/rodos/Discovery_WorkSpace_Updated/rodos/api/commbuffer.h **** 
  49:/home/rodos/Discovery_WorkSpace_Updated/rodos/api/commbuffer.h **** #pragma once
  50:/home/rodos/Discovery_WorkSpace_Updated/rodos/api/commbuffer.h **** 
  51:/home/rodos/Discovery_WorkSpace_Updated/rodos/api/commbuffer.h **** #include "putter.h"
  52:/home/rodos/Discovery_WorkSpace_Updated/rodos/api/commbuffer.h **** 
  53:/home/rodos/Discovery_WorkSpace_Updated/rodos/api/commbuffer.h **** 
  54:/home/rodos/Discovery_WorkSpace_Updated/rodos/api/commbuffer.h **** #ifndef NO_RODOS_NAMESPACE
  55:/home/rodos/Discovery_WorkSpace_Updated/rodos/api/commbuffer.h **** namespace RODOS {
  56:/home/rodos/Discovery_WorkSpace_Updated/rodos/api/commbuffer.h **** #endif
  57:/home/rodos/Discovery_WorkSpace_Updated/rodos/api/commbuffer.h **** 
  58:/home/rodos/Discovery_WorkSpace_Updated/rodos/api/commbuffer.h **** /**
  59:/home/rodos/Discovery_WorkSpace_Updated/rodos/api/commbuffer.h ****  * @class CommBuffer
  60:/home/rodos/Discovery_WorkSpace_Updated/rodos/api/commbuffer.h ****  * @brief A simple buffer for asynchronous communication
  61:/home/rodos/Discovery_WorkSpace_Updated/rodos/api/commbuffer.h ****  *
  62:/home/rodos/Discovery_WorkSpace_Updated/rodos/api/commbuffer.h ****  * CommBuffer can be used to interchange data asynchronously.
  63:/home/rodos/Discovery_WorkSpace_Updated/rodos/api/commbuffer.h ****  * both sides (reader/writer) can work simultaneously and the data
  64:/home/rodos/Discovery_WorkSpace_Updated/rodos/api/commbuffer.h ****  * will be allways consistent.
  65:/home/rodos/Discovery_WorkSpace_Updated/rodos/api/commbuffer.h ****  * There can be only one reader and only one writer.
  66:/home/rodos/Discovery_WorkSpace_Updated/rodos/api/commbuffer.h ****  * Eachtime the reader reads, it gets the latest data written.
  67:/home/rodos/Discovery_WorkSpace_Updated/rodos/api/commbuffer.h ****  * Due to fast switching between the buffers, the delay in simultaneous access
  68:/home/rodos/Discovery_WorkSpace_Updated/rodos/api/commbuffer.h ****  * is only short.
  69:/home/rodos/Discovery_WorkSpace_Updated/rodos/api/commbuffer.h ****  * @param Type Type of the data to synchonize by CommBuffer
  70:/home/rodos/Discovery_WorkSpace_Updated/rodos/api/commbuffer.h ****  */
  71:/home/rodos/Discovery_WorkSpace_Updated/rodos/api/commbuffer.h **** 
  72:/home/rodos/Discovery_WorkSpace_Updated/rodos/api/commbuffer.h **** template <typename Type> class CommBuffer : public Putter {
  73:/home/rodos/Discovery_WorkSpace_Updated/rodos/api/commbuffer.h **** 
  74:/home/rodos/Discovery_WorkSpace_Updated/rodos/api/commbuffer.h **** private:
  75:/home/rodos/Discovery_WorkSpace_Updated/rodos/api/commbuffer.h ****     /// Data area consisting of three independent parts to avoid access conflicts.
  76:/home/rodos/Discovery_WorkSpace_Updated/rodos/api/commbuffer.h ****     Type buffer[3];
  77:/home/rodos/Discovery_WorkSpace_Updated/rodos/api/commbuffer.h ****     /// Pointer to buffer area that is currently written or will be written next.
  78:/home/rodos/Discovery_WorkSpace_Updated/rodos/api/commbuffer.h ****     Type* writer;
  79:/home/rodos/Discovery_WorkSpace_Updated/rodos/api/commbuffer.h ****     /// Pointer to buffer where last data is stored.
  80:/home/rodos/Discovery_WorkSpace_Updated/rodos/api/commbuffer.h ****     Type* reader;
  81:/home/rodos/Discovery_WorkSpace_Updated/rodos/api/commbuffer.h ****     /// Additional buffer, to avaoid conflicts between simultaneous read-write access.
  82:/home/rodos/Discovery_WorkSpace_Updated/rodos/api/commbuffer.h ****     Type* intermediate;
  83:/home/rodos/Discovery_WorkSpace_Updated/rodos/api/commbuffer.h ****     /** Flag to protect buffer. It indicates access to the current read buffer 
  84:/home/rodos/Discovery_WorkSpace_Updated/rodos/api/commbuffer.h ****      * in order to prevent data conflicts.
  85:/home/rodos/Discovery_WorkSpace_Updated/rodos/api/commbuffer.h ****      */
  86:/home/rodos/Discovery_WorkSpace_Updated/rodos/api/commbuffer.h ****     volatile bool readingNow;
  87:/home/rodos/Discovery_WorkSpace_Updated/rodos/api/commbuffer.h **** 
  88:/home/rodos/Discovery_WorkSpace_Updated/rodos/api/commbuffer.h **** public:
  89:/home/rodos/Discovery_WorkSpace_Updated/rodos/api/commbuffer.h ****   uint64_t writeCnt;
  90:/home/rodos/Discovery_WorkSpace_Updated/rodos/api/commbuffer.h ****   uint64_t readCnt;
  91:/home/rodos/Discovery_WorkSpace_Updated/rodos/api/commbuffer.h ****   /** Constructor */
  92:/home/rodos/Discovery_WorkSpace_Updated/rodos/api/commbuffer.h ****   CommBuffer() {
 1667              		.loc 5 92 0
 1668              		.cfi_startproc
 1669              		@ args = 0, pretend = 0, frame = 8
 1670              		@ frame_needed = 1, uses_anonymous_args = 0
 1671 0000 B0B5     		push	{r4, r5, r7, lr}
 1672              	.LCFI63:
 1673              		.cfi_def_cfa_offset 16
 1674              		.cfi_offset 4, -16
 1675              		.cfi_offset 5, -12
 1676              		.cfi_offset 7, -8
 1677              		.cfi_offset 14, -4
 1678 0002 82B0     		sub	sp, sp, #8
 1679              	.LCFI64:
 1680              		.cfi_def_cfa_offset 24
 1681 0004 00AF     		add	r7, sp, #0
 1682              	.LCFI65:
 1683              		.cfi_def_cfa_register 7
 1684 0006 7860     		str	r0, [r7, #4]
 1685              	.LBB13:
 1686              		.loc 5 92 0
 1687 0008 7B68     		ldr	r3, [r7, #4]
 1688 000a 1846     		mov	r0, r3
 1689 000c FFF7FEFF 		bl	_ZN5RODOS6PutterC2Ev
 1690 0010 7B68     		ldr	r3, [r7, #4]
 1691 0012 1F4A     		ldr	r2, .L106
 1692 0014 1A60     		str	r2, [r3, #0]
 1693 0016 7B68     		ldr	r3, [r7, #4]
 1694 0018 03F10403 		add	r3, r3, #4
 1695 001c 1D46     		mov	r5, r3
 1696 001e 4FF00204 		mov	r4, #2
 1697 0022 06E0     		b	.L102
 1698              	.L103:
 1699              		.loc 5 92 0 is_stmt 0 discriminator 2
 1700 0024 2846     		mov	r0, r5
 1701 0026 FFF7FEFF 		bl	_ZN13TelemetryDataC1Ev
 1702 002a 05F10C05 		add	r5, r5, #12
 1703 002e 04F1FF34 		add	r4, r4, #-1
 1704              	.L102:
 1705              		.loc 5 92 0 discriminator 1
 1706 0032 B4F1FF3F 		cmp	r4, #-1
 1707 0036 0CBF     		ite	eq
 1708 0038 0023     		moveq	r3, #0
 1709 003a 0123     		movne	r3, #1
 1710 003c DBB2     		uxtb	r3, r3
 1711 003e 002B     		cmp	r3, #0
 1712 0040 F0D1     		bne	.L103
  93:/home/rodos/Discovery_WorkSpace_Updated/rodos/api/commbuffer.h ****     writer = &buffer[0];
 1713              		.loc 5 93 0 is_stmt 1 discriminator 3
 1714 0042 7B68     		ldr	r3, [r7, #4]
 1715 0044 03F10402 		add	r2, r3, #4
 1716 0048 7B68     		ldr	r3, [r7, #4]
 1717 004a 9A62     		str	r2, [r3, #40]
  94:/home/rodos/Discovery_WorkSpace_Updated/rodos/api/commbuffer.h ****     reader = &buffer[1];
 1718              		.loc 5 94 0 discriminator 3
 1719 004c 7B68     		ldr	r3, [r7, #4]
 1720 004e 03F11002 		add	r2, r3, #16
 1721 0052 7B68     		ldr	r3, [r7, #4]
 1722 0054 DA62     		str	r2, [r3, #44]
  95:/home/rodos/Discovery_WorkSpace_Updated/rodos/api/commbuffer.h ****     intermediate = &buffer[2];
 1723              		.loc 5 95 0 discriminator 3
 1724 0056 7B68     		ldr	r3, [r7, #4]
 1725 0058 03F11C02 		add	r2, r3, #28
 1726 005c 7B68     		ldr	r3, [r7, #4]
 1727 005e 1A63     		str	r2, [r3, #48]
  96:/home/rodos/Discovery_WorkSpace_Updated/rodos/api/commbuffer.h ****     readingNow = false;
 1728              		.loc 5 96 0 discriminator 3
 1729 0060 7B68     		ldr	r3, [r7, #4]
 1730 0062 4FF00002 		mov	r2, #0
 1731 0066 83F83420 		strb	r2, [r3, #52]
  97:/home/rodos/Discovery_WorkSpace_Updated/rodos/api/commbuffer.h ****     writeCnt = readCnt = 0;
 1732              		.loc 5 97 0 discriminator 3
 1733 006a 7968     		ldr	r1, [r7, #4]
 1734 006c 4FF00002 		mov	r2, #0
 1735 0070 4FF00003 		mov	r3, #0
 1736 0074 C1E91023 		strd	r2, [r1, #64]
 1737 0078 7B68     		ldr	r3, [r7, #4]
 1738 007a D3E91023 		ldrd	r2, [r3, #64]
 1739 007e 7968     		ldr	r1, [r7, #4]
 1740 0080 C1E90E23 		strd	r2, [r1, #56]
 1741              	.LBE13:
 1742 0084 7B68     		ldr	r3, [r7, #4]
  98:/home/rodos/Discovery_WorkSpace_Updated/rodos/api/commbuffer.h ****   }
 1743              		.loc 5 98 0 discriminator 3
 1744 0086 1846     		mov	r0, r3
 1745 0088 07F10807 		add	r7, r7, #8
 1746 008c BD46     		mov	sp, r7
 1747 008e B0BD     		pop	{r4, r5, r7, pc}
 1748              	.L107:
 1749              		.align	2
 1750              	.L106:
 1751 0090 08000000 		.word	_ZTVN5RODOS10CommBufferI13TelemetryDataEE+8
 1752              		.cfi_endproc
 1753              	.LFE216:
 1755              		.weak	_ZN5RODOS10CommBufferI13TelemetryDataEC1Ev
 1756              		.thumb_set _ZN5RODOS10CommBufferI13TelemetryDataEC1Ev,_ZN5RODOS10CommBufferI13TelemetryDataEC2Ev
 1757              		.section	.text._ZN5RODOS5TopicI15TelecommandDataEC2ElPKc,"axG",%progbits,_ZN5RODOS5TopicI15Telecom
 1758              		.align	2
 1759              		.weak	_ZN5RODOS5TopicI15TelecommandDataEC2ElPKc
 1760              		.thumb
 1761              		.thumb_func
 1763              	_ZN5RODOS5TopicI15TelecommandDataEC2ElPKc:
 1764              	.LFB219:
 1765              		.loc 1 187 0
 1766              		.cfi_startproc
 1767              		@ args = 0, pretend = 0, frame = 16
 1768              		@ frame_needed = 1, uses_anonymous_args = 0
 1769 0000 80B5     		push	{r7, lr}
 1770              	.LCFI66:
 1771              		.cfi_def_cfa_offset 8
 1772              		.cfi_offset 7, -8
 1773              		.cfi_offset 14, -4
 1774 0002 84B0     		sub	sp, sp, #16
 1775              	.LCFI67:
 1776              		.cfi_def_cfa_offset 24
 1777 0004 00AF     		add	r7, sp, #0
 1778              	.LCFI68:
 1779              		.cfi_def_cfa_register 7
 1780 0006 F860     		str	r0, [r7, #12]
 1781 0008 B960     		str	r1, [r7, #8]
 1782 000a 7A60     		str	r2, [r7, #4]
 1783              	.LBB14:
 1784              		.loc 1 187 0
 1785 000c FB68     		ldr	r3, [r7, #12]
 1786 000e 1846     		mov	r0, r3
 1787 0010 B968     		ldr	r1, [r7, #8]
 1788 0012 4FF00802 		mov	r2, #8
 1789 0016 7B68     		ldr	r3, [r7, #4]
 1790 0018 FFF7FEFF 		bl	_ZN5RODOS14TopicInterfaceC2EllPKc
 1791 001c FB68     		ldr	r3, [r7, #12]
 1792 001e 044A     		ldr	r2, .L111
 1793 0020 1A60     		str	r2, [r3, #0]
 1794              	.LBE14:
 1795 0022 FB68     		ldr	r3, [r7, #12]
 1796 0024 1846     		mov	r0, r3
 1797 0026 07F11007 		add	r7, r7, #16
 1798 002a BD46     		mov	sp, r7
 1799 002c 80BD     		pop	{r7, pc}
 1800              	.L112:
 1801 002e 00BF     		.align	2
 1802              	.L111:
 1803 0030 08000000 		.word	_ZTVN5RODOS5TopicI15TelecommandDataEE+8
 1804              		.cfi_endproc
 1805              	.LFE219:
 1807              		.weak	_ZN5RODOS5TopicI15TelecommandDataEC1ElPKc
 1808              		.thumb_set _ZN5RODOS5TopicI15TelecommandDataEC1ElPKc,_ZN5RODOS5TopicI15TelecommandDataEC2ElPKc
 1809              		.section	.text._ZN5RODOS10CommBufferI13TelemetryDataE3getERS1_,"axG",%progbits,_ZN5RODOS10CommBuff
 1810              		.align	2
 1811              		.weak	_ZN5RODOS10CommBufferI13TelemetryDataE3getERS1_
 1812              		.thumb
 1813              		.thumb_func
 1815              	_ZN5RODOS10CommBufferI13TelemetryDataE3getERS1_:
 1816              	.LFB221:
  99:/home/rodos/Discovery_WorkSpace_Updated/rodos/api/commbuffer.h **** 
 100:/home/rodos/Discovery_WorkSpace_Updated/rodos/api/commbuffer.h ****   /**
 101:/home/rodos/Discovery_WorkSpace_Updated/rodos/api/commbuffer.h ****    * Implements the generic interface of class Putter.
 102:/home/rodos/Discovery_WorkSpace_Updated/rodos/api/commbuffer.h ****    * Put methods should only used by one thread.
 103:/home/rodos/Discovery_WorkSpace_Updated/rodos/api/commbuffer.h ****    * @param msgLen Length of the message.
 104:/home/rodos/Discovery_WorkSpace_Updated/rodos/api/commbuffer.h ****    * @param data Pointer to the message data to put.
 105:/home/rodos/Discovery_WorkSpace_Updated/rodos/api/commbuffer.h ****    * @return true if the put operation is successful, else false. If the
 106:/home/rodos/Discovery_WorkSpace_Updated/rodos/api/commbuffer.h ****    * msgLen doesn't match the size of the template type the method is never
 107:/home/rodos/Discovery_WorkSpace_Updated/rodos/api/commbuffer.h ****    * successful.
 108:/home/rodos/Discovery_WorkSpace_Updated/rodos/api/commbuffer.h ****    */
 109:/home/rodos/Discovery_WorkSpace_Updated/rodos/api/commbuffer.h ****   bool putGeneric(const long topicId, const unsigned int len, const void* msg, const NetMsgInfo& ne
 110:/home/rodos/Discovery_WorkSpace_Updated/rodos/api/commbuffer.h ****     if(len > sizeof(Type)) {
 111:/home/rodos/Discovery_WorkSpace_Updated/rodos/api/commbuffer.h ****       ERROR("combuffer wrong len");
 112:/home/rodos/Discovery_WorkSpace_Updated/rodos/api/commbuffer.h ****       return false;
 113:/home/rodos/Discovery_WorkSpace_Updated/rodos/api/commbuffer.h ****     }
 114:/home/rodos/Discovery_WorkSpace_Updated/rodos/api/commbuffer.h ****     put(*(Type*)msg);
 115:/home/rodos/Discovery_WorkSpace_Updated/rodos/api/commbuffer.h ****     return true;
 116:/home/rodos/Discovery_WorkSpace_Updated/rodos/api/commbuffer.h ****   }
 117:/home/rodos/Discovery_WorkSpace_Updated/rodos/api/commbuffer.h **** 
 118:/home/rodos/Discovery_WorkSpace_Updated/rodos/api/commbuffer.h ****   /**
 119:/home/rodos/Discovery_WorkSpace_Updated/rodos/api/commbuffer.h ****    * Implements the the put operation of data to the CommBuffer. The data is
 120:/home/rodos/Discovery_WorkSpace_Updated/rodos/api/commbuffer.h ****    * stored in the buffer, and swap read and write buffer for next write.
 121:/home/rodos/Discovery_WorkSpace_Updated/rodos/api/commbuffer.h ****    * Put methods should only used by one thread.
 122:/home/rodos/Discovery_WorkSpace_Updated/rodos/api/commbuffer.h ****    * @param data Reference of the message data to put.
 123:/home/rodos/Discovery_WorkSpace_Updated/rodos/api/commbuffer.h ****    */
 124:/home/rodos/Discovery_WorkSpace_Updated/rodos/api/commbuffer.h ****   void put(Type& data) {
 125:/home/rodos/Discovery_WorkSpace_Updated/rodos/api/commbuffer.h ****     *writer = data;
 126:/home/rodos/Discovery_WorkSpace_Updated/rodos/api/commbuffer.h **** 
 127:/home/rodos/Discovery_WorkSpace_Updated/rodos/api/commbuffer.h ****     /* Swap reader <-> writer in order to make them read in the next call to get. */
 128:/home/rodos/Discovery_WorkSpace_Updated/rodos/api/commbuffer.h ****     Type* swap = reader;
 129:/home/rodos/Discovery_WorkSpace_Updated/rodos/api/commbuffer.h ****     reader = writer;
 130:/home/rodos/Discovery_WorkSpace_Updated/rodos/api/commbuffer.h ****     writer = swap;
 131:/home/rodos/Discovery_WorkSpace_Updated/rodos/api/commbuffer.h **** 
 132:/home/rodos/Discovery_WorkSpace_Updated/rodos/api/commbuffer.h ****     /* Buffer being read now? Then take the intermediate buffer for the next write. */
 133:/home/rodos/Discovery_WorkSpace_Updated/rodos/api/commbuffer.h ****     if(readingNow) {
 134:/home/rodos/Discovery_WorkSpace_Updated/rodos/api/commbuffer.h ****       swap = writer;
 135:/home/rodos/Discovery_WorkSpace_Updated/rodos/api/commbuffer.h ****       writer = intermediate;
 136:/home/rodos/Discovery_WorkSpace_Updated/rodos/api/commbuffer.h ****       intermediate = swap;
 137:/home/rodos/Discovery_WorkSpace_Updated/rodos/api/commbuffer.h ****     }
 138:/home/rodos/Discovery_WorkSpace_Updated/rodos/api/commbuffer.h ****     writeCnt++;
 139:/home/rodos/Discovery_WorkSpace_Updated/rodos/api/commbuffer.h ****   }
 140:/home/rodos/Discovery_WorkSpace_Updated/rodos/api/commbuffer.h **** 
 141:/home/rodos/Discovery_WorkSpace_Updated/rodos/api/commbuffer.h ****   /**
 142:/home/rodos/Discovery_WorkSpace_Updated/rodos/api/commbuffer.h ****    * Get the next consistent message from the CommBuffer.
 143:/home/rodos/Discovery_WorkSpace_Updated/rodos/api/commbuffer.h ****    * The method get should only used by one thread.
 144:/home/rodos/Discovery_WorkSpace_Updated/rodos/api/commbuffer.h ****    * @param data Reference of the message data to get.
 145:/home/rodos/Discovery_WorkSpace_Updated/rodos/api/commbuffer.h ****    */
 146:/home/rodos/Discovery_WorkSpace_Updated/rodos/api/commbuffer.h ****   void get(Type &data) {
 1817              		.loc 5 146 0
 1818              		.cfi_startproc
 1819              		@ args = 0, pretend = 0, frame = 16
 1820              		@ frame_needed = 1, uses_anonymous_args = 0
 1821              		@ link register save eliminated.
 1822 0000 80B4     		push	{r7}
 1823              	.LCFI69:
 1824              		.cfi_def_cfa_offset 4
 1825              		.cfi_offset 7, -4
 1826 0002 85B0     		sub	sp, sp, #20
 1827              	.LCFI70:
 1828              		.cfi_def_cfa_offset 24
 1829 0004 00AF     		add	r7, sp, #0
 1830              	.LCFI71:
 1831              		.cfi_def_cfa_register 7
 1832 0006 7860     		str	r0, [r7, #4]
 1833 0008 3960     		str	r1, [r7, #0]
 1834              	.LBB15:
 147:/home/rodos/Discovery_WorkSpace_Updated/rodos/api/commbuffer.h ****     readingNow = true;
 1835              		.loc 5 147 0
 1836 000a 7B68     		ldr	r3, [r7, #4]
 1837 000c 4FF00102 		mov	r2, #1
 1838 0010 83F83420 		strb	r2, [r3, #52]
 148:/home/rodos/Discovery_WorkSpace_Updated/rodos/api/commbuffer.h ****     Type* readerTmp = reader; // This is assumed to be atomar
 1839              		.loc 5 148 0
 1840 0014 7B68     		ldr	r3, [r7, #4]
 1841 0016 DB6A     		ldr	r3, [r3, #44]
 1842 0018 FB60     		str	r3, [r7, #12]
 149:/home/rodos/Discovery_WorkSpace_Updated/rodos/api/commbuffer.h ****     data = *readerTmp;		  // this is not atomar
 1843              		.loc 5 149 0
 1844 001a 3B68     		ldr	r3, [r7, #0]
 1845 001c FA68     		ldr	r2, [r7, #12]
 1846 001e 07CA     		ldmia	r2, {r0, r1, r2}
 1847 0020 83E80700 		stmia	r3, {r0, r1, r2}
 150:/home/rodos/Discovery_WorkSpace_Updated/rodos/api/commbuffer.h ****     readingNow = false;
 1848              		.loc 5 150 0
 1849 0024 7B68     		ldr	r3, [r7, #4]
 1850 0026 4FF00002 		mov	r2, #0
 1851 002a 83F83420 		strb	r2, [r3, #52]
 151:/home/rodos/Discovery_WorkSpace_Updated/rodos/api/commbuffer.h ****     readCnt++;
 1852              		.loc 5 151 0
 1853 002e 7B68     		ldr	r3, [r7, #4]
 1854 0030 D3E91001 		ldrd	r0, [r3, #64]
 1855 0034 4FF00102 		mov	r2, #1
 1856 0038 4FF00003 		mov	r3, #0
 1857 003c 1218     		adds	r2, r2, r0
 1858 003e 43EB0103 		adc	r3, r3, r1
 1859 0042 7968     		ldr	r1, [r7, #4]
 1860 0044 C1E91023 		strd	r2, [r1, #64]
 1861              	.LBE15:
 152:/home/rodos/Discovery_WorkSpace_Updated/rodos/api/commbuffer.h ****   }
 1862              		.loc 5 152 0
 1863 0048 07F11407 		add	r7, r7, #20
 1864 004c BD46     		mov	sp, r7
 1865 004e 80BC     		pop	{r7}
 1866 0050 7047     		bx	lr
 1867              		.cfi_endproc
 1868              	.LFE221:
 1870 0052 00BF     		.section	.text._ZN5RODOS5TopicI13TelemetryDataE7publishERS1_b,"axG",%progbits,_ZN5RODOS5TopicI13Te
 1871              		.align	2
 1872              		.weak	_ZN5RODOS5TopicI13TelemetryDataE7publishERS1_b
 1873              		.thumb
 1874              		.thumb_func
 1876              	_ZN5RODOS5TopicI13TelemetryDataE7publishERS1_b:
 1877              	.LFB222:
 188:/home/rodos/Discovery_WorkSpace_Updated/rodos/api/topic.h **** 
 189:/home/rodos/Discovery_WorkSpace_Updated/rodos/api/topic.h ****     ~Topic() {
 190:/home/rodos/Discovery_WorkSpace_Updated/rodos/api/topic.h ****         ERROR("topic deleted");
 191:/home/rodos/Discovery_WorkSpace_Updated/rodos/api/topic.h ****     }
 192:/home/rodos/Discovery_WorkSpace_Updated/rodos/api/topic.h **** 
 193:/home/rodos/Discovery_WorkSpace_Updated/rodos/api/topic.h ****     /** publish/distribute the message to all listeners to the given serviceId.
 194:/home/rodos/Discovery_WorkSpace_Updated/rodos/api/topic.h ****      * if shallSendToNetwork the message will be fordarded to gateways too (default)
 195:/home/rodos/Discovery_WorkSpace_Updated/rodos/api/topic.h ****      * warning 1: Never use it from an interrupt server.
 196:/home/rodos/Discovery_WorkSpace_Updated/rodos/api/topic.h ****      * warning 2: the pointer to msg will be distributed. A Subscriber may modify its content
 197:/home/rodos/Discovery_WorkSpace_Updated/rodos/api/topic.h ****      */
 198:/home/rodos/Discovery_WorkSpace_Updated/rodos/api/topic.h ****     inline unsigned long publish(Type &msg, bool shallSendToNetwork = true) {
 1878              		.loc 1 198 0
 1879              		.cfi_startproc
 1880              		@ args = 0, pretend = 0, frame = 16
 1881              		@ frame_needed = 1, uses_anonymous_args = 0
 1882 0000 80B5     		push	{r7, lr}
 1883              	.LCFI72:
 1884              		.cfi_def_cfa_offset 8
 1885              		.cfi_offset 7, -8
 1886              		.cfi_offset 14, -4
 1887 0002 84B0     		sub	sp, sp, #16
 1888              	.LCFI73:
 1889              		.cfi_def_cfa_offset 24
 1890 0004 00AF     		add	r7, sp, #0
 1891              	.LCFI74:
 1892              		.cfi_def_cfa_register 7
 1893 0006 F860     		str	r0, [r7, #12]
 1894 0008 B960     		str	r1, [r7, #8]
 1895 000a 1346     		mov	r3, r2
 1896 000c FB71     		strb	r3, [r7, #7]
 199:/home/rodos/Discovery_WorkSpace_Updated/rodos/api/topic.h ****         return TopicInterface::publish(&msg, shallSendToNetwork);
 1897              		.loc 1 199 0
 1898 000e FA68     		ldr	r2, [r7, #12]
 1899 0010 FB79     		ldrb	r3, [r7, #7]	@ zero_extendqisi2
 1900 0012 1046     		mov	r0, r2
 1901 0014 B968     		ldr	r1, [r7, #8]
 1902 0016 1A46     		mov	r2, r3
 1903 0018 4FF00003 		mov	r3, #0
 1904 001c FFF7FEFF 		bl	_ZN5RODOS14TopicInterface7publishEPvbPNS_10NetMsgInfoE
 1905 0020 0346     		mov	r3, r0
 200:/home/rodos/Discovery_WorkSpace_Updated/rodos/api/topic.h ****     }
 1906              		.loc 1 200 0
 1907 0022 1846     		mov	r0, r3
 1908 0024 07F11007 		add	r7, r7, #16
 1909 0028 BD46     		mov	sp, r7
 1910 002a 80BD     		pop	{r7, pc}
 1911              		.cfi_endproc
 1912              	.LFE222:
 1914              		.weak	_ZTV7Thread2
 1915              		.section	.rodata._ZTV7Thread2,"aG",%progbits,_ZTV7Thread2,comdat
 1916              		.align	3
 1919              	_ZTV7Thread2:
 1920 0000 00000000 		.word	0
 1921 0004 00000000 		.word	0
 1922 0008 00000000 		.word	_ZN7Thread2D1Ev
 1923 000c 00000000 		.word	_ZN7Thread2D0Ev
 1924 0010 00000000 		.word	_ZN7Thread23runEv
 1925 0014 00000000 		.word	_ZN7Thread24initEv
 1926              		.section	.text._ZN7Thread2D2Ev,"axG",%progbits,_ZN7Thread2D5Ev,comdat
 1927              		.align	2
 1928              		.weak	_ZN7Thread2D2Ev
 1929              		.thumb
 1930              		.thumb_func
 1932              	_ZN7Thread2D2Ev:
 1933              	.LFB224:
 120:../Exe3_Task_1.cpp **** class Thread2:public Thread
 1934              		.loc 4 120 0
 1935              		.cfi_startproc
 1936              		@ args = 0, pretend = 0, frame = 8
 1937              		@ frame_needed = 1, uses_anonymous_args = 0
 1938 0000 80B5     		push	{r7, lr}
 1939              	.LCFI75:
 1940              		.cfi_def_cfa_offset 8
 1941              		.cfi_offset 7, -8
 1942              		.cfi_offset 14, -4
 1943 0002 82B0     		sub	sp, sp, #8
 1944              	.LCFI76:
 1945              		.cfi_def_cfa_offset 16
 1946 0004 00AF     		add	r7, sp, #0
 1947              	.LCFI77:
 1948              		.cfi_def_cfa_register 7
 1949 0006 7860     		str	r0, [r7, #4]
 1950              	.LBB16:
 120:../Exe3_Task_1.cpp **** class Thread2:public Thread
 1951              		.loc 4 120 0
 1952 0008 7B68     		ldr	r3, [r7, #4]
 1953 000a 0A4A     		ldr	r2, .L120
 1954 000c 1A60     		str	r2, [r3, #0]
 1955 000e 7B68     		ldr	r3, [r7, #4]
 1956 0010 1846     		mov	r0, r3
 1957 0012 FFF7FEFF 		bl	_ZN5RODOS6ThreadD2Ev
 1958              	.LBE16:
 1959 0016 4FF00003 		mov	r3, #0
 1960 001a 03F00103 		and	r3, r3, #1
 1961 001e 002B     		cmp	r3, #0
 1962 0020 02D0     		beq	.L118
 120:../Exe3_Task_1.cpp **** class Thread2:public Thread
 1963              		.loc 4 120 0 is_stmt 0 discriminator 2
 1964 0022 7868     		ldr	r0, [r7, #4]
 1965 0024 FFF7FEFF 		bl	_ZdlPv
 1966              	.L118:
 120:../Exe3_Task_1.cpp **** class Thread2:public Thread
 1967              		.loc 4 120 0 discriminator 3
 1968 0028 7B68     		ldr	r3, [r7, #4]
 1969 002a 1846     		mov	r0, r3
 1970 002c 07F10807 		add	r7, r7, #8
 1971 0030 BD46     		mov	sp, r7
 1972 0032 80BD     		pop	{r7, pc}
 1973              	.L121:
 1974              		.align	2
 1975              	.L120:
 1976 0034 08000000 		.word	_ZTV7Thread2+8
 1977              		.cfi_endproc
 1978              	.LFE224:
 1980              		.weak	_ZN7Thread2D1Ev
 1981              		.thumb_set _ZN7Thread2D1Ev,_ZN7Thread2D2Ev
 1982              		.section	.text._ZN7Thread2D0Ev,"axG",%progbits,_ZN7Thread2D0Ev,comdat
 1983              		.align	2
 1984              		.weak	_ZN7Thread2D0Ev
 1985              		.thumb
 1986              		.thumb_func
 1988              	_ZN7Thread2D0Ev:
 1989              	.LFB226:
 120:../Exe3_Task_1.cpp **** class Thread2:public Thread
 1990              		.loc 4 120 0 is_stmt 1
 1991              		.cfi_startproc
 1992              		@ args = 0, pretend = 0, frame = 8
 1993              		@ frame_needed = 1, uses_anonymous_args = 0
 1994 0000 80B5     		push	{r7, lr}
 1995              	.LCFI78:
 1996              		.cfi_def_cfa_offset 8
 1997              		.cfi_offset 7, -8
 1998              		.cfi_offset 14, -4
 1999 0002 82B0     		sub	sp, sp, #8
 2000              	.LCFI79:
 2001              		.cfi_def_cfa_offset 16
 2002 0004 00AF     		add	r7, sp, #0
 2003              	.LCFI80:
 2004              		.cfi_def_cfa_register 7
 2005 0006 7860     		str	r0, [r7, #4]
 120:../Exe3_Task_1.cpp **** class Thread2:public Thread
 2006              		.loc 4 120 0
 2007 0008 7868     		ldr	r0, [r7, #4]
 2008 000a FFF7FEFF 		bl	_ZN7Thread2D1Ev
 2009 000e 7868     		ldr	r0, [r7, #4]
 2010 0010 FFF7FEFF 		bl	_ZdlPv
 2011 0014 7B68     		ldr	r3, [r7, #4]
 2012 0016 1846     		mov	r0, r3
 2013 0018 07F10807 		add	r7, r7, #8
 2014 001c BD46     		mov	sp, r7
 2015 001e 80BD     		pop	{r7, pc}
 2016              		.cfi_endproc
 2017              	.LFE226:
 2019              		.weak	_ZTV7Thread1
 2020              		.section	.rodata._ZTV7Thread1,"aG",%progbits,_ZTV7Thread1,comdat
 2021              		.align	3
 2024              	_ZTV7Thread1:
 2025 0000 00000000 		.word	0
 2026 0004 00000000 		.word	0
 2027 0008 00000000 		.word	_ZN7Thread1D1Ev
 2028 000c 00000000 		.word	_ZN7Thread1D0Ev
 2029 0010 00000000 		.word	_ZN7Thread13runEv
 2030 0014 00000000 		.word	_ZN7Thread14initEv
 2031              		.section	.text._ZN7Thread1D2Ev,"axG",%progbits,_ZN7Thread1D5Ev,comdat
 2032              		.align	2
 2033              		.weak	_ZN7Thread1D2Ev
 2034              		.thumb
 2035              		.thumb_func
 2037              	_ZN7Thread1D2Ev:
 2038              	.LFB228:
  98:../Exe3_Task_1.cpp **** class Thread1:public Thread
 2039              		.loc 4 98 0
 2040              		.cfi_startproc
 2041              		@ args = 0, pretend = 0, frame = 8
 2042              		@ frame_needed = 1, uses_anonymous_args = 0
 2043 0000 80B5     		push	{r7, lr}
 2044              	.LCFI81:
 2045              		.cfi_def_cfa_offset 8
 2046              		.cfi_offset 7, -8
 2047              		.cfi_offset 14, -4
 2048 0002 82B0     		sub	sp, sp, #8
 2049              	.LCFI82:
 2050              		.cfi_def_cfa_offset 16
 2051 0004 00AF     		add	r7, sp, #0
 2052              	.LCFI83:
 2053              		.cfi_def_cfa_register 7
 2054 0006 7860     		str	r0, [r7, #4]
 2055              	.LBB17:
  98:../Exe3_Task_1.cpp **** class Thread1:public Thread
 2056              		.loc 4 98 0
 2057 0008 7B68     		ldr	r3, [r7, #4]
 2058 000a 0A4A     		ldr	r2, .L129
 2059 000c 1A60     		str	r2, [r3, #0]
 2060 000e 7B68     		ldr	r3, [r7, #4]
 2061 0010 1846     		mov	r0, r3
 2062 0012 FFF7FEFF 		bl	_ZN5RODOS6ThreadD2Ev
 2063              	.LBE17:
 2064 0016 4FF00003 		mov	r3, #0
 2065 001a 03F00103 		and	r3, r3, #1
 2066 001e 002B     		cmp	r3, #0
 2067 0020 02D0     		beq	.L127
  98:../Exe3_Task_1.cpp **** class Thread1:public Thread
 2068              		.loc 4 98 0 is_stmt 0 discriminator 2
 2069 0022 7868     		ldr	r0, [r7, #4]
 2070 0024 FFF7FEFF 		bl	_ZdlPv
 2071              	.L127:
  98:../Exe3_Task_1.cpp **** class Thread1:public Thread
 2072              		.loc 4 98 0 discriminator 3
 2073 0028 7B68     		ldr	r3, [r7, #4]
 2074 002a 1846     		mov	r0, r3
 2075 002c 07F10807 		add	r7, r7, #8
 2076 0030 BD46     		mov	sp, r7
 2077 0032 80BD     		pop	{r7, pc}
 2078              	.L130:
 2079              		.align	2
 2080              	.L129:
 2081 0034 08000000 		.word	_ZTV7Thread1+8
 2082              		.cfi_endproc
 2083              	.LFE228:
 2085              		.weak	_ZN7Thread1D1Ev
 2086              		.thumb_set _ZN7Thread1D1Ev,_ZN7Thread1D2Ev
 2087              		.section	.text._ZN7Thread1D0Ev,"axG",%progbits,_ZN7Thread1D0Ev,comdat
 2088              		.align	2
 2089              		.weak	_ZN7Thread1D0Ev
 2090              		.thumb
 2091              		.thumb_func
 2093              	_ZN7Thread1D0Ev:
 2094              	.LFB230:
  98:../Exe3_Task_1.cpp **** class Thread1:public Thread
 2095              		.loc 4 98 0 is_stmt 1
 2096              		.cfi_startproc
 2097              		@ args = 0, pretend = 0, frame = 8
 2098              		@ frame_needed = 1, uses_anonymous_args = 0
 2099 0000 80B5     		push	{r7, lr}
 2100              	.LCFI84:
 2101              		.cfi_def_cfa_offset 8
 2102              		.cfi_offset 7, -8
 2103              		.cfi_offset 14, -4
 2104 0002 82B0     		sub	sp, sp, #8
 2105              	.LCFI85:
 2106              		.cfi_def_cfa_offset 16
 2107 0004 00AF     		add	r7, sp, #0
 2108              	.LCFI86:
 2109              		.cfi_def_cfa_register 7
 2110 0006 7860     		str	r0, [r7, #4]
  98:../Exe3_Task_1.cpp **** class Thread1:public Thread
 2111              		.loc 4 98 0
 2112 0008 7868     		ldr	r0, [r7, #4]
 2113 000a FFF7FEFF 		bl	_ZN7Thread1D1Ev
 2114 000e 7868     		ldr	r0, [r7, #4]
 2115 0010 FFF7FEFF 		bl	_ZdlPv
 2116 0014 7B68     		ldr	r3, [r7, #4]
 2117 0016 1846     		mov	r0, r3
 2118 0018 07F10807 		add	r7, r7, #8
 2119 001c BD46     		mov	sp, r7
 2120 001e 80BD     		pop	{r7, pc}
 2121              		.cfi_endproc
 2122              	.LFE230:
 2124              		.weak	_ZTV11Telecommand
 2125              		.section	.rodata._ZTV11Telecommand,"aG",%progbits,_ZTV11Telecommand,comdat
 2126              		.align	3
 2129              	_ZTV11Telecommand:
 2130 0000 00000000 		.word	0
 2131 0004 00000000 		.word	0
 2132 0008 00000000 		.word	_ZN11TelecommandD1Ev
 2133 000c 00000000 		.word	_ZN11TelecommandD0Ev
 2134 0010 00000000 		.word	_ZN11Telecommand3runEv
 2135 0014 00000000 		.word	_ZN11Telecommand4initEv
 2136              		.section	.text._ZN11TelecommandD2Ev,"axG",%progbits,_ZN11TelecommandD5Ev,comdat
 2137              		.align	2
 2138              		.weak	_ZN11TelecommandD2Ev
 2139              		.thumb
 2140              		.thumb_func
 2142              	_ZN11TelecommandD2Ev:
 2143              	.LFB232:
  46:../Exe3_Task_1.cpp **** class Telecommand:public Thread
 2144              		.loc 4 46 0
 2145              		.cfi_startproc
 2146              		@ args = 0, pretend = 0, frame = 8
 2147              		@ frame_needed = 1, uses_anonymous_args = 0
 2148 0000 80B5     		push	{r7, lr}
 2149              	.LCFI87:
 2150              		.cfi_def_cfa_offset 8
 2151              		.cfi_offset 7, -8
 2152              		.cfi_offset 14, -4
 2153 0002 82B0     		sub	sp, sp, #8
 2154              	.LCFI88:
 2155              		.cfi_def_cfa_offset 16
 2156 0004 00AF     		add	r7, sp, #0
 2157              	.LCFI89:
 2158              		.cfi_def_cfa_register 7
 2159 0006 7860     		str	r0, [r7, #4]
 2160              	.LBB18:
  46:../Exe3_Task_1.cpp **** class Telecommand:public Thread
 2161              		.loc 4 46 0
 2162 0008 7B68     		ldr	r3, [r7, #4]
 2163 000a 0A4A     		ldr	r2, .L138
 2164 000c 1A60     		str	r2, [r3, #0]
 2165 000e 7B68     		ldr	r3, [r7, #4]
 2166 0010 1846     		mov	r0, r3
 2167 0012 FFF7FEFF 		bl	_ZN5RODOS6ThreadD2Ev
 2168              	.LBE18:
 2169 0016 4FF00003 		mov	r3, #0
 2170 001a 03F00103 		and	r3, r3, #1
 2171 001e 002B     		cmp	r3, #0
 2172 0020 02D0     		beq	.L136
  46:../Exe3_Task_1.cpp **** class Telecommand:public Thread
 2173              		.loc 4 46 0 is_stmt 0 discriminator 2
 2174 0022 7868     		ldr	r0, [r7, #4]
 2175 0024 FFF7FEFF 		bl	_ZdlPv
 2176              	.L136:
  46:../Exe3_Task_1.cpp **** class Telecommand:public Thread
 2177              		.loc 4 46 0 discriminator 3
 2178 0028 7B68     		ldr	r3, [r7, #4]
 2179 002a 1846     		mov	r0, r3
 2180 002c 07F10807 		add	r7, r7, #8
 2181 0030 BD46     		mov	sp, r7
 2182 0032 80BD     		pop	{r7, pc}
 2183              	.L139:
 2184              		.align	2
 2185              	.L138:
 2186 0034 08000000 		.word	_ZTV11Telecommand+8
 2187              		.cfi_endproc
 2188              	.LFE232:
 2190              		.weak	_ZN11TelecommandD1Ev
 2191              		.thumb_set _ZN11TelecommandD1Ev,_ZN11TelecommandD2Ev
 2192              		.section	.text._ZN11TelecommandD0Ev,"axG",%progbits,_ZN11TelecommandD0Ev,comdat
 2193              		.align	2
 2194              		.weak	_ZN11TelecommandD0Ev
 2195              		.thumb
 2196              		.thumb_func
 2198              	_ZN11TelecommandD0Ev:
 2199              	.LFB234:
  46:../Exe3_Task_1.cpp **** class Telecommand:public Thread
 2200              		.loc 4 46 0 is_stmt 1
 2201              		.cfi_startproc
 2202              		@ args = 0, pretend = 0, frame = 8
 2203              		@ frame_needed = 1, uses_anonymous_args = 0
 2204 0000 80B5     		push	{r7, lr}
 2205              	.LCFI90:
 2206              		.cfi_def_cfa_offset 8
 2207              		.cfi_offset 7, -8
 2208              		.cfi_offset 14, -4
 2209 0002 82B0     		sub	sp, sp, #8
 2210              	.LCFI91:
 2211              		.cfi_def_cfa_offset 16
 2212 0004 00AF     		add	r7, sp, #0
 2213              	.LCFI92:
 2214              		.cfi_def_cfa_register 7
 2215 0006 7860     		str	r0, [r7, #4]
  46:../Exe3_Task_1.cpp **** class Telecommand:public Thread
 2216              		.loc 4 46 0
 2217 0008 7868     		ldr	r0, [r7, #4]
 2218 000a FFF7FEFF 		bl	_ZN11TelecommandD1Ev
 2219 000e 7868     		ldr	r0, [r7, #4]
 2220 0010 FFF7FEFF 		bl	_ZdlPv
 2221 0014 7B68     		ldr	r3, [r7, #4]
 2222 0016 1846     		mov	r0, r3
 2223 0018 07F10807 		add	r7, r7, #8
 2224 001c BD46     		mov	sp, r7
 2225 001e 80BD     		pop	{r7, pc}
 2226              		.cfi_endproc
 2227              	.LFE234:
 2229              		.weak	_ZTVN5RODOS5TopicI15TelecommandDataEE
 2230              		.section	.rodata._ZTVN5RODOS5TopicI15TelecommandDataEE,"aG",%progbits,_ZTVN5RODOS5TopicI15Telecomm
 2231              		.align	3
 2234              	_ZTVN5RODOS5TopicI15TelecommandDataEE:
 2235 0000 00000000 		.word	0
 2236 0004 00000000 		.word	0
 2237 0008 00000000 		.word	_ZN5RODOS5TopicI15TelecommandDataED1Ev
 2238 000c 00000000 		.word	_ZN5RODOS5TopicI15TelecommandDataED0Ev
 2239              		.weak	_ZTVN5RODOS10CommBufferI13TelemetryDataEE
 2240              		.section	.rodata._ZTVN5RODOS10CommBufferI13TelemetryDataEE,"aG",%progbits,_ZTVN5RODOS10CommBufferI
 2241              		.align	3
 2244              	_ZTVN5RODOS10CommBufferI13TelemetryDataEE:
 2245 0000 00000000 		.word	0
 2246 0004 00000000 		.word	0
 2247 0008 00000000 		.word	_ZN5RODOS10CommBufferI13TelemetryDataED1Ev
 2248 000c 00000000 		.word	_ZN5RODOS10CommBufferI13TelemetryDataED0Ev
 2249 0010 00000000 		.word	_ZN5RODOS10CommBufferI13TelemetryDataE10putGenericEljPKvRKNS_10NetMsgInfoE
 2250 0014 00000000 		.section	.text._ZN5RODOS10CommBufferI13TelemetryDataED2Ev,"axG",%progbits,_ZN5RODOS10CommBufferI13
 2251              		.align	2
 2252              		.weak	_ZN5RODOS10CommBufferI13TelemetryDataED2Ev
 2253              		.thumb
 2254              		.thumb_func
 2256              	_ZN5RODOS10CommBufferI13TelemetryDataED2Ev:
 2257              	.LFB236:
  72:/home/rodos/Discovery_WorkSpace_Updated/rodos/api/commbuffer.h **** template <typename Type> class CommBuffer : public Putter {
 2258              		.loc 5 72 0
 2259              		.cfi_startproc
 2260              		@ args = 0, pretend = 0, frame = 8
 2261              		@ frame_needed = 1, uses_anonymous_args = 0
 2262 0000 80B5     		push	{r7, lr}
 2263              	.LCFI93:
 2264              		.cfi_def_cfa_offset 8
 2265              		.cfi_offset 7, -8
 2266              		.cfi_offset 14, -4
 2267 0002 82B0     		sub	sp, sp, #8
 2268              	.LCFI94:
 2269              		.cfi_def_cfa_offset 16
 2270 0004 00AF     		add	r7, sp, #0
 2271              	.LCFI95:
 2272              		.cfi_def_cfa_register 7
 2273 0006 7860     		str	r0, [r7, #4]
 2274              	.LBB19:
  72:/home/rodos/Discovery_WorkSpace_Updated/rodos/api/commbuffer.h **** template <typename Type> class CommBuffer : public Putter {
 2275              		.loc 5 72 0
 2276 0008 7B68     		ldr	r3, [r7, #4]
 2277 000a 0A4A     		ldr	r2, .L147
 2278 000c 1A60     		str	r2, [r3, #0]
 2279 000e 7B68     		ldr	r3, [r7, #4]
 2280 0010 1846     		mov	r0, r3
 2281 0012 FFF7FEFF 		bl	_ZN5RODOS6PutterD2Ev
 2282              	.LBE19:
 2283 0016 4FF00003 		mov	r3, #0
 2284 001a 03F00103 		and	r3, r3, #1
 2285 001e 002B     		cmp	r3, #0
 2286 0020 02D0     		beq	.L145
  72:/home/rodos/Discovery_WorkSpace_Updated/rodos/api/commbuffer.h **** template <typename Type> class CommBuffer : public Putter {
 2287              		.loc 5 72 0 is_stmt 0 discriminator 2
 2288 0022 7868     		ldr	r0, [r7, #4]
 2289 0024 FFF7FEFF 		bl	_ZdlPv
 2290              	.L145:
  72:/home/rodos/Discovery_WorkSpace_Updated/rodos/api/commbuffer.h **** template <typename Type> class CommBuffer : public Putter {
 2291              		.loc 5 72 0 discriminator 3
 2292 0028 7B68     		ldr	r3, [r7, #4]
 2293 002a 1846     		mov	r0, r3
 2294 002c 07F10807 		add	r7, r7, #8
 2295 0030 BD46     		mov	sp, r7
 2296 0032 80BD     		pop	{r7, pc}
 2297              	.L148:
 2298              		.align	2
 2299              	.L147:
 2300 0034 08000000 		.word	_ZTVN5RODOS10CommBufferI13TelemetryDataEE+8
 2301              		.cfi_endproc
 2302              	.LFE236:
 2304              		.weak	_ZN5RODOS10CommBufferI13TelemetryDataED1Ev
 2305              		.thumb_set _ZN5RODOS10CommBufferI13TelemetryDataED1Ev,_ZN5RODOS10CommBufferI13TelemetryDataED2Ev
 2306              		.section	.text._ZN5RODOS10CommBufferI13TelemetryDataED0Ev,"axG",%progbits,_ZN5RODOS10CommBufferI13
 2307              		.align	2
 2308              		.weak	_ZN5RODOS10CommBufferI13TelemetryDataED0Ev
 2309              		.thumb
 2310              		.thumb_func
 2312              	_ZN5RODOS10CommBufferI13TelemetryDataED0Ev:
 2313              	.LFB238:
  72:/home/rodos/Discovery_WorkSpace_Updated/rodos/api/commbuffer.h **** template <typename Type> class CommBuffer : public Putter {
 2314              		.loc 5 72 0 is_stmt 1
 2315              		.cfi_startproc
 2316              		@ args = 0, pretend = 0, frame = 8
 2317              		@ frame_needed = 1, uses_anonymous_args = 0
 2318 0000 80B5     		push	{r7, lr}
 2319              	.LCFI96:
 2320              		.cfi_def_cfa_offset 8
 2321              		.cfi_offset 7, -8
 2322              		.cfi_offset 14, -4
 2323 0002 82B0     		sub	sp, sp, #8
 2324              	.LCFI97:
 2325              		.cfi_def_cfa_offset 16
 2326 0004 00AF     		add	r7, sp, #0
 2327              	.LCFI98:
 2328              		.cfi_def_cfa_register 7
 2329 0006 7860     		str	r0, [r7, #4]
  72:/home/rodos/Discovery_WorkSpace_Updated/rodos/api/commbuffer.h **** template <typename Type> class CommBuffer : public Putter {
 2330              		.loc 5 72 0
 2331 0008 7868     		ldr	r0, [r7, #4]
 2332 000a FFF7FEFF 		bl	_ZN5RODOS10CommBufferI13TelemetryDataED1Ev
 2333 000e 7868     		ldr	r0, [r7, #4]
 2334 0010 FFF7FEFF 		bl	_ZdlPv
 2335 0014 7B68     		ldr	r3, [r7, #4]
 2336 0016 1846     		mov	r0, r3
 2337 0018 07F10807 		add	r7, r7, #8
 2338 001c BD46     		mov	sp, r7
 2339 001e 80BD     		pop	{r7, pc}
 2340              		.cfi_endproc
 2341              	.LFE238:
 2343              		.weak	_ZTVN5RODOS5TopicI13TelemetryDataEE
 2344              		.section	.rodata._ZTVN5RODOS5TopicI13TelemetryDataEE,"aG",%progbits,_ZTVN5RODOS5TopicI13TelemetryD
 2345              		.align	3
 2348              	_ZTVN5RODOS5TopicI13TelemetryDataEE:
 2349 0000 00000000 		.word	0
 2350 0004 00000000 		.word	0
 2351 0008 00000000 		.word	_ZN5RODOS5TopicI13TelemetryDataED1Ev
 2352 000c 00000000 		.word	_ZN5RODOS5TopicI13TelemetryDataED0Ev
 2353              		.weak	_ZTVN5RODOS6PutterE
 2354              		.section	.rodata._ZTVN5RODOS6PutterE,"aG",%progbits,_ZTVN5RODOS6PutterE,comdat
 2355              		.align	3
 2358              	_ZTVN5RODOS6PutterE:
 2359 0000 00000000 		.word	0
 2360 0004 00000000 		.word	0
 2361 0008 00000000 		.word	_ZN5RODOS6PutterD1Ev
 2362 000c 00000000 		.word	_ZN5RODOS6PutterD0Ev
 2363 0010 00000000 		.word	_ZN5RODOS6Putter10putGenericEljPKvRKNS_10NetMsgInfoE
 2364              		.weak	_ZTVN5RODOS14TopicInterfaceE
 2365 0014 00000000 		.section	.rodata._ZTVN5RODOS14TopicInterfaceE,"aG",%progbits,_ZTVN5RODOS14TopicInterfaceE,comdat
 2366              		.align	3
 2369              	_ZTVN5RODOS14TopicInterfaceE:
 2370 0000 00000000 		.word	0
 2371 0004 00000000 		.word	0
 2372 0008 00000000 		.word	_ZN5RODOS14TopicInterfaceD1Ev
 2373 000c 00000000 		.word	_ZN5RODOS14TopicInterfaceD0Ev
 2374              		.section	.rodata
 2375 0156 0000     		.align	2
 2376              	.LC10:
 2377 0158 54656C65 		.ascii	"Telemetry Data\000"
 2377      6D657472 
 2377      79204461 
 2377      746100
 2378 0167 00       		.align	2
 2379              	.LC11:
 2380 0168 616E6F6E 		.ascii	"anonymSubscriber\000"
 2380      796D5375 
 2380      62736372 
 2380      69626572 
 2380      00
 2381 0179 000000   		.align	2
 2382              	.LC12:
 2383 017c 54656C65 		.ascii	"Telecommand Data\000"
 2383      636F6D6D 
 2383      616E6420 
 2383      44617461 
 2383      00
 2384              		.section	.text._Z41__static_initialization_and_destruction_0ii,"ax",%progbits
 2385              		.align	2
 2386              		.thumb
 2387              		.thumb_func
 2389              	_Z41__static_initialization_and_destruction_0ii:
 2390              	.LFB243:
 2391              		.loc 4 262 0
 2392              		.cfi_startproc
 2393              		@ args = 0, pretend = 0, frame = 8
 2394              		@ frame_needed = 1, uses_anonymous_args = 0
 2395 0000 80B5     		push	{r7, lr}
 2396              	.LCFI99:
 2397              		.cfi_def_cfa_offset 8
 2398              		.cfi_offset 7, -8
 2399              		.cfi_offset 14, -4
 2400 0002 84B0     		sub	sp, sp, #16
 2401              	.LCFI100:
 2402              		.cfi_def_cfa_offset 24
 2403 0004 02AF     		add	r7, sp, #8
 2404              	.LCFI101:
 2405              		.cfi_def_cfa 7, 16
 2406 0006 7860     		str	r0, [r7, #4]
 2407 0008 3960     		str	r1, [r7, #0]
 2408              		.loc 4 262 0
 2409 000a 7B68     		ldr	r3, [r7, #4]
 2410 000c 012B     		cmp	r3, #1
 2411 000e 40F0BB80 		bne	.L152
 2412              		.loc 4 262 0 is_stmt 0 discriminator 1
 2413 0012 3A68     		ldr	r2, [r7, #0]
 2414 0014 4FF6FF73 		movw	r3, #65535
 2415 0018 9A42     		cmp	r2, r3
 2416 001a 40F0B580 		bne	.L152
 2417              		.file 6 "../Exe3_Task1.h"
   1:../Exe3_Task1.h **** /*
   2:../Exe3_Task1.h ****  * Exe3_Task1.h
   3:../Exe3_Task1.h ****  *
   4:../Exe3_Task1.h ****  *  Created on: Nov 19, 2020
   5:../Exe3_Task1.h ****  *      Author: rodos
   6:../Exe3_Task1.h ****  */
   7:../Exe3_Task1.h **** 
   8:../Exe3_Task1.h **** #ifndef EXE3_TASK1_H_
   9:../Exe3_Task1.h **** #define EXE3_TASK1_H_
  10:../Exe3_Task1.h **** 
  11:../Exe3_Task1.h **** 
  12:../Exe3_Task1.h **** #define MaxLength  12
  13:../Exe3_Task1.h **** #define TelecommandStart                               '$'
  14:../Exe3_Task1.h **** #define TelecommandStop                                '#'
  15:../Exe3_Task1.h **** 
  16:../Exe3_Task1.h **** uint8_t ReceiveState = 0;
  17:../Exe3_Task1.h **** uint8_t SignFlag = 0;
  18:../Exe3_Task1.h **** uint8_t DotFlag = 0;
  19:../Exe3_Task1.h **** uint8_t DataIndex = 0;
  20:../Exe3_Task1.h **** 
  21:../Exe3_Task1.h **** char TelecommandID;
  22:../Exe3_Task1.h **** 
  23:../Exe3_Task1.h **** char ReceiveData[MaxLength];
  24:../Exe3_Task1.h **** 
  25:../Exe3_Task1.h **** 
  26:../Exe3_Task1.h **** 
  27:../Exe3_Task1.h **** #define TelecommandAck                        '&'
  28:../Exe3_Task1.h **** 
  29:../Exe3_Task1.h **** #define stepSize                              's'
  30:../Exe3_Task1.h **** #define t1                                    'a'
  31:../Exe3_Task1.h **** #define t2                                    'b'
  32:../Exe3_Task1.h **** 
  33:../Exe3_Task1.h **** 
  34:../Exe3_Task1.h **** #define TelemetryID                                    'T'
  35:../Exe3_Task1.h **** #define SystemModeID                                   'M'
  36:../Exe3_Task1.h **** #define AHRSModeID                                     'A'
  37:../Exe3_Task1.h **** #define VelocityID                                     'V'
  38:../Exe3_Task1.h **** #define PositionID                                     'P'
  39:../Exe3_Task1.h **** #define MotorSpeedID                                   'S'
  40:../Exe3_Task1.h **** #define ControllerID                                   'C'
  41:../Exe3_Task1.h **** #define ControllerParameterID                          'p'
  42:../Exe3_Task1.h **** #define ControllerParameterGainID                      'g'
  43:../Exe3_Task1.h **** 
  44:../Exe3_Task1.h **** uint8_t Command(uint8_t TelecommandID);
  45:../Exe3_Task1.h **** uint8_t Decode(uint8_t RxBuffer);
  46:../Exe3_Task1.h **** HAL_GPIO TelecommandLED(GPIO_060);
 2418              		.loc 6 46 0 is_stmt 1
 2419 001e 40F20000 		movw	r0, #:lower16:TelecommandLED
 2420 0022 C0F20000 		movt	r0, #:upper16:TelecommandLED
 2421 0026 4FF03C01 		mov	r1, #60
 2422 002a FFF7FEFF 		bl	_ZN5RODOS8HAL_GPIOC1ENS_8GPIO_PINE
  35:../Exe3_Task_1.cpp **** Topic<TelemetryData> TelemetryDataTopic(111, "Telemetry Data");
 2423              		.loc 4 35 0
 2424 002e 40F20000 		movw	r0, #:lower16:TelemetryDataTopic
 2425 0032 C0F20000 		movt	r0, #:upper16:TelemetryDataTopic
 2426 0036 4FF06F01 		mov	r1, #111
 2427 003a 40F20002 		movw	r2, #:lower16:.LC10
 2428 003e C0F20002 		movt	r2, #:upper16:.LC10
 2429 0042 FFF7FEFF 		bl	_ZN5RODOS5TopicI13TelemetryDataEC1ElPKc
 2430 0046 40F20000 		movw	r0, #:lower16:TelemetryDataTopic
 2431 004a C0F20000 		movt	r0, #:upper16:TelemetryDataTopic
 2432 004e 40F20001 		movw	r1, #:lower16:_ZN5RODOS5TopicI13TelemetryDataED1Ev
 2433 0052 C0F20001 		movt	r1, #:upper16:_ZN5RODOS5TopicI13TelemetryDataED1Ev
 2434 0056 40F20002 		movw	r2, #:lower16:__dso_handle
 2435 005a C0F20002 		movt	r2, #:upper16:__dso_handle
 2436 005e FFF7FEFF 		bl	__aeabi_atexit
  36:../Exe3_Task_1.cpp **** CommBuffer<TelemetryData> TelemetryDataBuffer;
 2437              		.loc 4 36 0
 2438 0062 40F20000 		movw	r0, #:lower16:TelemetryDataBuffer
 2439 0066 C0F20000 		movt	r0, #:upper16:TelemetryDataBuffer
 2440 006a FFF7FEFF 		bl	_ZN5RODOS10CommBufferI13TelemetryDataEC1Ev
 2441 006e 40F20000 		movw	r0, #:lower16:TelemetryDataBuffer
 2442 0072 C0F20000 		movt	r0, #:upper16:TelemetryDataBuffer
 2443 0076 40F20001 		movw	r1, #:lower16:_ZN5RODOS10CommBufferI13TelemetryDataED1Ev
 2444 007a C0F20001 		movt	r1, #:upper16:_ZN5RODOS10CommBufferI13TelemetryDataED1Ev
 2445 007e 40F20002 		movw	r2, #:lower16:__dso_handle
 2446 0082 C0F20002 		movt	r2, #:upper16:__dso_handle
 2447 0086 FFF7FEFF 		bl	__aeabi_atexit
  37:../Exe3_Task_1.cpp **** Subscriber TelemetryDataSubscriber(TelemetryDataTopic, TelemetryDataBuffer);
 2448              		.loc 4 37 0
 2449 008a 4FF00003 		mov	r3, #0
 2450 008e 0093     		str	r3, [sp, #0]
 2451 0090 40F20000 		movw	r0, #:lower16:TelemetryDataSubscriber
 2452 0094 C0F20000 		movt	r0, #:upper16:TelemetryDataSubscriber
 2453 0098 40F20001 		movw	r1, #:lower16:TelemetryDataTopic
 2454 009c C0F20001 		movt	r1, #:upper16:TelemetryDataTopic
 2455 00a0 40F20002 		movw	r2, #:lower16:TelemetryDataBuffer
 2456 00a4 C0F20002 		movt	r2, #:upper16:TelemetryDataBuffer
 2457 00a8 40F20003 		movw	r3, #:lower16:.LC11
 2458 00ac C0F20003 		movt	r3, #:upper16:.LC11
 2459 00b0 FFF7FEFF 		bl	_ZN5RODOS10SubscriberC1ERNS_14TopicInterfaceERNS_6PutterEPKcb
 2460 00b4 40F20000 		movw	r0, #:lower16:TelemetryDataSubscriber
 2461 00b8 C0F20000 		movt	r0, #:upper16:TelemetryDataSubscriber
 2462 00bc 40F20001 		movw	r1, #:lower16:_ZN5RODOS10SubscriberD1Ev
 2463 00c0 C0F20001 		movt	r1, #:upper16:_ZN5RODOS10SubscriberD1Ev
 2464 00c4 40F20002 		movw	r2, #:lower16:__dso_handle
 2465 00c8 C0F20002 		movt	r2, #:upper16:__dso_handle
 2466 00cc FFF7FEFF 		bl	__aeabi_atexit
  42:../Exe3_Task_1.cpp **** Topic<TelecommandData> TelecommandDataTopic(222, "Telecommand Data");
 2467              		.loc 4 42 0
 2468 00d0 40F20000 		movw	r0, #:lower16:TelecommandDataTopic
 2469 00d4 C0F20000 		movt	r0, #:upper16:TelecommandDataTopic
 2470 00d8 4FF0DE01 		mov	r1, #222
 2471 00dc 40F20002 		movw	r2, #:lower16:.LC12
 2472 00e0 C0F20002 		movt	r2, #:upper16:.LC12
 2473 00e4 FFF7FEFF 		bl	_ZN5RODOS5TopicI15TelecommandDataEC1ElPKc
 2474 00e8 40F20000 		movw	r0, #:lower16:TelecommandDataTopic
 2475 00ec C0F20000 		movt	r0, #:upper16:TelecommandDataTopic
 2476 00f0 40F20001 		movw	r1, #:lower16:_ZN5RODOS5TopicI15TelecommandDataED1Ev
 2477 00f4 C0F20001 		movt	r1, #:upper16:_ZN5RODOS5TopicI15TelecommandDataED1Ev
 2478 00f8 40F20002 		movw	r2, #:lower16:__dso_handle
 2479 00fc C0F20002 		movt	r2, #:upper16:__dso_handle
 2480 0100 FFF7FEFF 		bl	__aeabi_atexit
  44:../Exe3_Task_1.cpp **** TelemetryData tm;
 2481              		.loc 4 44 0
 2482 0104 40F20000 		movw	r0, #:lower16:tm
 2483 0108 C0F20000 		movt	r0, #:upper16:tm
 2484 010c FFF7FEFF 		bl	_ZN13TelemetryDataC1Ev
  93:../Exe3_Task_1.cpp **** }a;
 2485              		.loc 4 93 0
 2486 0110 40F20000 		movw	r0, #:lower16:a
 2487 0114 C0F20000 		movt	r0, #:upper16:a
 2488 0118 FFF7FEFF 		bl	_ZN11TelecommandC1Ev
 2489 011c 40F20000 		movw	r0, #:lower16:a
 2490 0120 C0F20000 		movt	r0, #:upper16:a
 2491 0124 40F20001 		movw	r1, #:lower16:_ZN11TelecommandD1Ev
 2492 0128 C0F20001 		movt	r1, #:upper16:_ZN11TelecommandD1Ev
 2493 012c 40F20002 		movw	r2, #:lower16:__dso_handle
 2494 0130 C0F20002 		movt	r2, #:upper16:__dso_handle
 2495 0134 FFF7FEFF 		bl	__aeabi_atexit
 117:../Exe3_Task_1.cpp **** }thread1;
 2496              		.loc 4 117 0
 2497 0138 40F20000 		movw	r0, #:lower16:thread1
 2498 013c C0F20000 		movt	r0, #:upper16:thread1
 2499 0140 FFF7FEFF 		bl	_ZN7Thread1C1Ev
 2500 0144 40F20000 		movw	r0, #:lower16:thread1
 2501 0148 C0F20000 		movt	r0, #:upper16:thread1
 2502 014c 40F20001 		movw	r1, #:lower16:_ZN7Thread1D1Ev
 2503 0150 C0F20001 		movt	r1, #:upper16:_ZN7Thread1D1Ev
 2504 0154 40F20002 		movw	r2, #:lower16:__dso_handle
 2505 0158 C0F20002 		movt	r2, #:upper16:__dso_handle
 2506 015c FFF7FEFF 		bl	__aeabi_atexit
 144:../Exe3_Task_1.cpp **** }thread2;
 2507              		.loc 4 144 0
 2508 0160 40F20000 		movw	r0, #:lower16:thread2
 2509 0164 C0F20000 		movt	r0, #:upper16:thread2
 2510 0168 FFF7FEFF 		bl	_ZN7Thread2C1Ev
 2511 016c 40F20000 		movw	r0, #:lower16:thread2
 2512 0170 C0F20000 		movt	r0, #:upper16:thread2
 2513 0174 40F20001 		movw	r1, #:lower16:_ZN7Thread2D1Ev
 2514 0178 C0F20001 		movt	r1, #:upper16:_ZN7Thread2D1Ev
 2515 017c 40F20002 		movw	r2, #:lower16:__dso_handle
 2516 0180 C0F20002 		movt	r2, #:upper16:__dso_handle
 2517 0184 FFF7FEFF 		bl	__aeabi_atexit
 2518              	.L152:
 2519              		.loc 4 262 0
 2520 0188 07F10807 		add	r7, r7, #8
 2521 018c BD46     		mov	sp, r7
 2522 018e 80BD     		pop	{r7, pc}
 2523              		.cfi_endproc
 2524              	.LFE243:
 2526              		.section	.rodata
 2527 018d 000000   		.align	2
 2528              	.LC13:
 2529 0190 746F7069 		.ascii	"topic deleted\000"
 2529      63206465 
 2529      6C657465 
 2529      6400
 2530              		.section	.text._ZN5RODOS5TopicI15TelecommandDataED2Ev,"axG",%progbits,_ZN5RODOS5TopicI15Telecomman
 2531              		.align	2
 2532              		.weak	_ZN5RODOS5TopicI15TelecommandDataED2Ev
 2533              		.thumb
 2534              		.thumb_func
 2536              	_ZN5RODOS5TopicI15TelecommandDataED2Ev:
 2537              	.LFB249:
 189:/home/rodos/Discovery_WorkSpace_Updated/rodos/api/topic.h ****     ~Topic() {
 2538              		.loc 1 189 0
 2539              		.cfi_startproc
 2540              		@ args = 0, pretend = 0, frame = 8
 2541              		@ frame_needed = 1, uses_anonymous_args = 0
 2542 0000 80B5     		push	{r7, lr}
 2543              	.LCFI102:
 2544              		.cfi_def_cfa_offset 8
 2545              		.cfi_offset 7, -8
 2546              		.cfi_offset 14, -4
 2547 0002 82B0     		sub	sp, sp, #8
 2548              	.LCFI103:
 2549              		.cfi_def_cfa_offset 16
 2550 0004 00AF     		add	r7, sp, #0
 2551              	.LCFI104:
 2552              		.cfi_def_cfa_register 7
 2553 0006 7860     		str	r0, [r7, #4]
 2554              	.LBB20:
 191:/home/rodos/Discovery_WorkSpace_Updated/rodos/api/topic.h ****     }
 2555              		.loc 1 191 0
 2556 0008 7B68     		ldr	r3, [r7, #4]
 2557 000a 0D4A     		ldr	r2, .L158
 2558 000c 1A60     		str	r2, [r3, #0]
 190:/home/rodos/Discovery_WorkSpace_Updated/rodos/api/topic.h ****         ERROR("topic deleted");
 2559              		.loc 1 190 0
 2560 000e 40F20000 		movw	r0, #:lower16:.LC13
 2561 0012 C0F20000 		movt	r0, #:upper16:.LC13
 2562 0016 FFF7FEFF 		bl	_ZN5RODOS5ERROREPKc
 191:/home/rodos/Discovery_WorkSpace_Updated/rodos/api/topic.h ****     }
 2563              		.loc 1 191 0
 2564 001a 7B68     		ldr	r3, [r7, #4]
 190:/home/rodos/Discovery_WorkSpace_Updated/rodos/api/topic.h ****         ERROR("topic deleted");
 2565              		.loc 1 190 0
 2566 001c 1846     		mov	r0, r3
 2567 001e FFF7FEFF 		bl	_ZN5RODOS14TopicInterfaceD2Ev
 2568              	.LBE20:
 2569 0022 4FF00003 		mov	r3, #0
 2570 0026 03F00103 		and	r3, r3, #1
 2571 002a 002B     		cmp	r3, #0
 2572 002c 02D0     		beq	.L156
 190:/home/rodos/Discovery_WorkSpace_Updated/rodos/api/topic.h ****         ERROR("topic deleted");
 2573              		.loc 1 190 0 is_stmt 0 discriminator 2
 2574 002e 7868     		ldr	r0, [r7, #4]
 2575 0030 FFF7FEFF 		bl	_ZdlPv
 2576              	.L156:
 190:/home/rodos/Discovery_WorkSpace_Updated/rodos/api/topic.h ****         ERROR("topic deleted");
 2577              		.loc 1 190 0 discriminator 3
 2578 0034 7B68     		ldr	r3, [r7, #4]
 191:/home/rodos/Discovery_WorkSpace_Updated/rodos/api/topic.h ****     }
 2579              		.loc 1 191 0 is_stmt 1 discriminator 3
 2580 0036 1846     		mov	r0, r3
 2581 0038 07F10807 		add	r7, r7, #8
 2582 003c BD46     		mov	sp, r7
 2583 003e 80BD     		pop	{r7, pc}
 2584              	.L159:
 2585              		.align	2
 2586              	.L158:
 2587 0040 08000000 		.word	_ZTVN5RODOS5TopicI15TelecommandDataEE+8
 2588              		.cfi_endproc
 2589              	.LFE249:
 2591              		.weak	_ZN5RODOS5TopicI15TelecommandDataED1Ev
 2592              		.thumb_set _ZN5RODOS5TopicI15TelecommandDataED1Ev,_ZN5RODOS5TopicI15TelecommandDataED2Ev
 2593              		.section	.text._ZN5RODOS5TopicI15TelecommandDataED0Ev,"axG",%progbits,_ZN5RODOS5TopicI15Telecomman
 2594              		.align	2
 2595              		.weak	_ZN5RODOS5TopicI15TelecommandDataED0Ev
 2596              		.thumb
 2597              		.thumb_func
 2599              	_ZN5RODOS5TopicI15TelecommandDataED0Ev:
 2600              	.LFB251:
 189:/home/rodos/Discovery_WorkSpace_Updated/rodos/api/topic.h ****     ~Topic() {
 2601              		.loc 1 189 0
 2602              		.cfi_startproc
 2603              		@ args = 0, pretend = 0, frame = 8
 2604              		@ frame_needed = 1, uses_anonymous_args = 0
 2605 0000 80B5     		push	{r7, lr}
 2606              	.LCFI105:
 2607              		.cfi_def_cfa_offset 8
 2608              		.cfi_offset 7, -8
 2609              		.cfi_offset 14, -4
 2610 0002 82B0     		sub	sp, sp, #8
 2611              	.LCFI106:
 2612              		.cfi_def_cfa_offset 16
 2613 0004 00AF     		add	r7, sp, #0
 2614              	.LCFI107:
 2615              		.cfi_def_cfa_register 7
 2616 0006 7860     		str	r0, [r7, #4]
 191:/home/rodos/Discovery_WorkSpace_Updated/rodos/api/topic.h ****     }
 2617              		.loc 1 191 0
 2618 0008 7868     		ldr	r0, [r7, #4]
 2619 000a FFF7FEFF 		bl	_ZN5RODOS5TopicI15TelecommandDataED1Ev
 2620 000e 7868     		ldr	r0, [r7, #4]
 2621 0010 FFF7FEFF 		bl	_ZdlPv
 2622 0014 7B68     		ldr	r3, [r7, #4]
 2623 0016 1846     		mov	r0, r3
 2624 0018 07F10807 		add	r7, r7, #8
 2625 001c BD46     		mov	sp, r7
 2626 001e 80BD     		pop	{r7, pc}
 2627              		.cfi_endproc
 2628              	.LFE251:
 2630              		.section	.rodata
 2631 019e 0000     		.align	2
 2632              	.LC14:
 2633 01a0 636F6D62 		.ascii	"combuffer wrong len\000"
 2633      75666665 
 2633      72207772 
 2633      6F6E6720 
 2633      6C656E00 
 2634              		.section	.text._ZN5RODOS10CommBufferI13TelemetryDataE10putGenericEljPKvRKNS_10NetMsgInfoE,"axG",%p
 2635              		.align	2
 2636              		.weak	_ZN5RODOS10CommBufferI13TelemetryDataE10putGenericEljPKvRKNS_10NetMsgInfoE
 2637              		.thumb
 2638              		.thumb_func
 2640              	_ZN5RODOS10CommBufferI13TelemetryDataE10putGenericEljPKvRKNS_10NetMsgInfoE:
 2641              	.LFB252:
 109:/home/rodos/Discovery_WorkSpace_Updated/rodos/api/commbuffer.h ****   bool putGeneric(const long topicId, const unsigned int len, const void* msg, const NetMsgInfo& ne
 2642              		.loc 5 109 0
 2643              		.cfi_startproc
 2644              		@ args = 4, pretend = 0, frame = 16
 2645              		@ frame_needed = 1, uses_anonymous_args = 0
 2646 0000 80B5     		push	{r7, lr}
 2647              	.LCFI108:
 2648              		.cfi_def_cfa_offset 8
 2649              		.cfi_offset 7, -8
 2650              		.cfi_offset 14, -4
 2651 0002 84B0     		sub	sp, sp, #16
 2652              	.LCFI109:
 2653              		.cfi_def_cfa_offset 24
 2654 0004 00AF     		add	r7, sp, #0
 2655              	.LCFI110:
 2656              		.cfi_def_cfa_register 7
 2657 0006 F860     		str	r0, [r7, #12]
 2658 0008 B960     		str	r1, [r7, #8]
 2659 000a 7A60     		str	r2, [r7, #4]
 2660 000c 3B60     		str	r3, [r7, #0]
 110:/home/rodos/Discovery_WorkSpace_Updated/rodos/api/commbuffer.h ****     if(len > sizeof(Type)) {
 2661              		.loc 5 110 0
 2662 000e 7B68     		ldr	r3, [r7, #4]
 2663 0010 0C2B     		cmp	r3, #12
 2664 0012 08D9     		bls	.L164
 111:/home/rodos/Discovery_WorkSpace_Updated/rodos/api/commbuffer.h ****       ERROR("combuffer wrong len");
 2665              		.loc 5 111 0
 2666 0014 40F20000 		movw	r0, #:lower16:.LC14
 2667 0018 C0F20000 		movt	r0, #:upper16:.LC14
 2668 001c FFF7FEFF 		bl	_ZN5RODOS5ERROREPKc
 112:/home/rodos/Discovery_WorkSpace_Updated/rodos/api/commbuffer.h ****       return false;
 2669              		.loc 5 112 0
 2670 0020 4FF00003 		mov	r3, #0
 2671 0024 05E0     		b	.L165
 2672              	.L164:
 114:/home/rodos/Discovery_WorkSpace_Updated/rodos/api/commbuffer.h ****     put(*(Type*)msg);
 2673              		.loc 5 114 0
 2674 0026 F868     		ldr	r0, [r7, #12]
 2675 0028 3968     		ldr	r1, [r7, #0]
 2676 002a FFF7FEFF 		bl	_ZN5RODOS10CommBufferI13TelemetryDataE3putERS1_
 115:/home/rodos/Discovery_WorkSpace_Updated/rodos/api/commbuffer.h ****     return true;
 2677              		.loc 5 115 0
 2678 002e 4FF00103 		mov	r3, #1
 2679              	.L165:
 116:/home/rodos/Discovery_WorkSpace_Updated/rodos/api/commbuffer.h ****   }
 2680              		.loc 5 116 0
 2681 0032 1846     		mov	r0, r3
 2682 0034 07F11007 		add	r7, r7, #16
 2683 0038 BD46     		mov	sp, r7
 2684 003a 80BD     		pop	{r7, pc}
 2685              		.cfi_endproc
 2686              	.LFE252:
 2688              		.section	.text._ZN5RODOS5TopicI13TelemetryDataED2Ev,"axG",%progbits,_ZN5RODOS5TopicI13TelemetryDat
 2689              		.align	2
 2690              		.weak	_ZN5RODOS5TopicI13TelemetryDataED2Ev
 2691              		.thumb
 2692              		.thumb_func
 2694              	_ZN5RODOS5TopicI13TelemetryDataED2Ev:
 2695              	.LFB254:
 189:/home/rodos/Discovery_WorkSpace_Updated/rodos/api/topic.h ****     ~Topic() {
 2696              		.loc 1 189 0
 2697              		.cfi_startproc
 2698              		@ args = 0, pretend = 0, frame = 8
 2699              		@ frame_needed = 1, uses_anonymous_args = 0
 2700 0000 80B5     		push	{r7, lr}
 2701              	.LCFI111:
 2702              		.cfi_def_cfa_offset 8
 2703              		.cfi_offset 7, -8
 2704              		.cfi_offset 14, -4
 2705 0002 82B0     		sub	sp, sp, #8
 2706              	.LCFI112:
 2707              		.cfi_def_cfa_offset 16
 2708 0004 00AF     		add	r7, sp, #0
 2709              	.LCFI113:
 2710              		.cfi_def_cfa_register 7
 2711 0006 7860     		str	r0, [r7, #4]
 2712              	.LBB21:
 191:/home/rodos/Discovery_WorkSpace_Updated/rodos/api/topic.h ****     }
 2713              		.loc 1 191 0
 2714 0008 7B68     		ldr	r3, [r7, #4]
 2715 000a 0D4A     		ldr	r2, .L170
 2716 000c 1A60     		str	r2, [r3, #0]
 190:/home/rodos/Discovery_WorkSpace_Updated/rodos/api/topic.h ****         ERROR("topic deleted");
 2717              		.loc 1 190 0
 2718 000e 40F20000 		movw	r0, #:lower16:.LC13
 2719 0012 C0F20000 		movt	r0, #:upper16:.LC13
 2720 0016 FFF7FEFF 		bl	_ZN5RODOS5ERROREPKc
 191:/home/rodos/Discovery_WorkSpace_Updated/rodos/api/topic.h ****     }
 2721              		.loc 1 191 0
 2722 001a 7B68     		ldr	r3, [r7, #4]
 190:/home/rodos/Discovery_WorkSpace_Updated/rodos/api/topic.h ****         ERROR("topic deleted");
 2723              		.loc 1 190 0
 2724 001c 1846     		mov	r0, r3
 2725 001e FFF7FEFF 		bl	_ZN5RODOS14TopicInterfaceD2Ev
 2726              	.LBE21:
 2727 0022 4FF00003 		mov	r3, #0
 2728 0026 03F00103 		and	r3, r3, #1
 2729 002a 002B     		cmp	r3, #0
 2730 002c 02D0     		beq	.L168
 190:/home/rodos/Discovery_WorkSpace_Updated/rodos/api/topic.h ****         ERROR("topic deleted");
 2731              		.loc 1 190 0 is_stmt 0 discriminator 2
 2732 002e 7868     		ldr	r0, [r7, #4]
 2733 0030 FFF7FEFF 		bl	_ZdlPv
 2734              	.L168:
 190:/home/rodos/Discovery_WorkSpace_Updated/rodos/api/topic.h ****         ERROR("topic deleted");
 2735              		.loc 1 190 0 discriminator 3
 2736 0034 7B68     		ldr	r3, [r7, #4]
 191:/home/rodos/Discovery_WorkSpace_Updated/rodos/api/topic.h ****     }
 2737              		.loc 1 191 0 is_stmt 1 discriminator 3
 2738 0036 1846     		mov	r0, r3
 2739 0038 07F10807 		add	r7, r7, #8
 2740 003c BD46     		mov	sp, r7
 2741 003e 80BD     		pop	{r7, pc}
 2742              	.L171:
 2743              		.align	2
 2744              	.L170:
 2745 0040 08000000 		.word	_ZTVN5RODOS5TopicI13TelemetryDataEE+8
 2746              		.cfi_endproc
 2747              	.LFE254:
 2749              		.weak	_ZN5RODOS5TopicI13TelemetryDataED1Ev
 2750              		.thumb_set _ZN5RODOS5TopicI13TelemetryDataED1Ev,_ZN5RODOS5TopicI13TelemetryDataED2Ev
 2751              		.section	.text._ZN5RODOS5TopicI13TelemetryDataED0Ev,"axG",%progbits,_ZN5RODOS5TopicI13TelemetryDat
 2752              		.align	2
 2753              		.weak	_ZN5RODOS5TopicI13TelemetryDataED0Ev
 2754              		.thumb
 2755              		.thumb_func
 2757              	_ZN5RODOS5TopicI13TelemetryDataED0Ev:
 2758              	.LFB256:
 189:/home/rodos/Discovery_WorkSpace_Updated/rodos/api/topic.h ****     ~Topic() {
 2759              		.loc 1 189 0
 2760              		.cfi_startproc
 2761              		@ args = 0, pretend = 0, frame = 8
 2762              		@ frame_needed = 1, uses_anonymous_args = 0
 2763 0000 80B5     		push	{r7, lr}
 2764              	.LCFI114:
 2765              		.cfi_def_cfa_offset 8
 2766              		.cfi_offset 7, -8
 2767              		.cfi_offset 14, -4
 2768 0002 82B0     		sub	sp, sp, #8
 2769              	.LCFI115:
 2770              		.cfi_def_cfa_offset 16
 2771 0004 00AF     		add	r7, sp, #0
 2772              	.LCFI116:
 2773              		.cfi_def_cfa_register 7
 2774 0006 7860     		str	r0, [r7, #4]
 191:/home/rodos/Discovery_WorkSpace_Updated/rodos/api/topic.h ****     }
 2775              		.loc 1 191 0
 2776 0008 7868     		ldr	r0, [r7, #4]
 2777 000a FFF7FEFF 		bl	_ZN5RODOS5TopicI13TelemetryDataED1Ev
 2778 000e 7868     		ldr	r0, [r7, #4]
 2779 0010 FFF7FEFF 		bl	_ZdlPv
 2780 0014 7B68     		ldr	r3, [r7, #4]
 2781 0016 1846     		mov	r0, r3
 2782 0018 07F10807 		add	r7, r7, #8
 2783 001c BD46     		mov	sp, r7
 2784 001e 80BD     		pop	{r7, pc}
 2785              		.cfi_endproc
 2786              	.LFE256:
 2788              		.section	.text._ZN5RODOS10CommBufferI13TelemetryDataE3putERS1_,"axG",%progbits,_ZN5RODOS10CommBuff
 2789              		.align	2
 2790              		.weak	_ZN5RODOS10CommBufferI13TelemetryDataE3putERS1_
 2791              		.thumb
 2792              		.thumb_func
 2794              	_ZN5RODOS10CommBufferI13TelemetryDataE3putERS1_:
 2795              	.LFB257:
 124:/home/rodos/Discovery_WorkSpace_Updated/rodos/api/commbuffer.h ****   void put(Type& data) {
 2796              		.loc 5 124 0
 2797              		.cfi_startproc
 2798              		@ args = 0, pretend = 0, frame = 16
 2799              		@ frame_needed = 1, uses_anonymous_args = 0
 2800              		@ link register save eliminated.
 2801 0000 80B4     		push	{r7}
 2802              	.LCFI117:
 2803              		.cfi_def_cfa_offset 4
 2804              		.cfi_offset 7, -4
 2805 0002 85B0     		sub	sp, sp, #20
 2806              	.LCFI118:
 2807              		.cfi_def_cfa_offset 24
 2808 0004 00AF     		add	r7, sp, #0
 2809              	.LCFI119:
 2810              		.cfi_def_cfa_register 7
 2811 0006 7860     		str	r0, [r7, #4]
 2812 0008 3960     		str	r1, [r7, #0]
 2813              	.LBB22:
 125:/home/rodos/Discovery_WorkSpace_Updated/rodos/api/commbuffer.h ****     *writer = data;
 2814              		.loc 5 125 0
 2815 000a 7B68     		ldr	r3, [r7, #4]
 2816 000c 9B6A     		ldr	r3, [r3, #40]
 2817 000e 3A68     		ldr	r2, [r7, #0]
 2818 0010 07CA     		ldmia	r2, {r0, r1, r2}
 2819 0012 83E80700 		stmia	r3, {r0, r1, r2}
 128:/home/rodos/Discovery_WorkSpace_Updated/rodos/api/commbuffer.h ****     Type* swap = reader;
 2820              		.loc 5 128 0
 2821 0016 7B68     		ldr	r3, [r7, #4]
 2822 0018 DB6A     		ldr	r3, [r3, #44]
 2823 001a FB60     		str	r3, [r7, #12]
 129:/home/rodos/Discovery_WorkSpace_Updated/rodos/api/commbuffer.h ****     reader = writer;
 2824              		.loc 5 129 0
 2825 001c 7B68     		ldr	r3, [r7, #4]
 2826 001e 9A6A     		ldr	r2, [r3, #40]
 2827 0020 7B68     		ldr	r3, [r7, #4]
 2828 0022 DA62     		str	r2, [r3, #44]
 130:/home/rodos/Discovery_WorkSpace_Updated/rodos/api/commbuffer.h ****     writer = swap;
 2829              		.loc 5 130 0
 2830 0024 7B68     		ldr	r3, [r7, #4]
 2831 0026 FA68     		ldr	r2, [r7, #12]
 2832 0028 9A62     		str	r2, [r3, #40]
 133:/home/rodos/Discovery_WorkSpace_Updated/rodos/api/commbuffer.h ****     if(readingNow) {
 2833              		.loc 5 133 0
 2834 002a 7B68     		ldr	r3, [r7, #4]
 2835 002c 93F83430 		ldrb	r3, [r3, #52]
 2836 0030 DBB2     		uxtb	r3, r3
 2837 0032 002B     		cmp	r3, #0
 2838 0034 09D0     		beq	.L176
 134:/home/rodos/Discovery_WorkSpace_Updated/rodos/api/commbuffer.h ****       swap = writer;
 2839              		.loc 5 134 0
 2840 0036 7B68     		ldr	r3, [r7, #4]
 2841 0038 9B6A     		ldr	r3, [r3, #40]
 2842 003a FB60     		str	r3, [r7, #12]
 135:/home/rodos/Discovery_WorkSpace_Updated/rodos/api/commbuffer.h ****       writer = intermediate;
 2843              		.loc 5 135 0
 2844 003c 7B68     		ldr	r3, [r7, #4]
 2845 003e 1A6B     		ldr	r2, [r3, #48]
 2846 0040 7B68     		ldr	r3, [r7, #4]
 2847 0042 9A62     		str	r2, [r3, #40]
 136:/home/rodos/Discovery_WorkSpace_Updated/rodos/api/commbuffer.h ****       intermediate = swap;
 2848              		.loc 5 136 0
 2849 0044 7B68     		ldr	r3, [r7, #4]
 2850 0046 FA68     		ldr	r2, [r7, #12]
 2851 0048 1A63     		str	r2, [r3, #48]
 2852              	.L176:
 138:/home/rodos/Discovery_WorkSpace_Updated/rodos/api/commbuffer.h ****     writeCnt++;
 2853              		.loc 5 138 0
 2854 004a 7B68     		ldr	r3, [r7, #4]
 2855 004c D3E90E01 		ldrd	r0, [r3, #56]
 2856 0050 4FF00102 		mov	r2, #1
 2857 0054 4FF00003 		mov	r3, #0
 2858 0058 1218     		adds	r2, r2, r0
 2859 005a 43EB0103 		adc	r3, r3, r1
 2860 005e 7968     		ldr	r1, [r7, #4]
 2861 0060 C1E90E23 		strd	r2, [r1, #56]
 2862              	.LBE22:
 139:/home/rodos/Discovery_WorkSpace_Updated/rodos/api/commbuffer.h ****   }
 2863              		.loc 5 139 0
 2864 0064 07F11407 		add	r7, r7, #20
 2865 0068 BD46     		mov	sp, r7
 2866 006a 80BC     		pop	{r7}
 2867 006c 7047     		bx	lr
 2868              		.cfi_endproc
 2869              	.LFE257:
 2871 006e 00BF     		.section	.text._GLOBAL__sub_I_ReceiveState,"ax",%progbits
 2872              		.align	2
 2873              		.thumb
 2874              		.thumb_func
 2876              	_GLOBAL__sub_I_ReceiveState:
 2877              	.LFB261:
 2878              		.loc 4 262 0
 2879              		.cfi_startproc
 2880              		@ args = 0, pretend = 0, frame = 0
 2881              		@ frame_needed = 1, uses_anonymous_args = 0
 2882 0000 80B5     		push	{r7, lr}
 2883              	.LCFI120:
 2884              		.cfi_def_cfa_offset 8
 2885              		.cfi_offset 7, -8
 2886              		.cfi_offset 14, -4
 2887 0002 00AF     		add	r7, sp, #0
 2888              	.LCFI121:
 2889              		.cfi_def_cfa_register 7
 2890              		.loc 4 262 0
 2891 0004 4FF00100 		mov	r0, #1
 2892 0008 4FF6FF71 		movw	r1, #65535
 2893 000c FFF7FEFF 		bl	_Z41__static_initialization_and_destruction_0ii
 2894 0010 80BD     		pop	{r7, pc}
 2895              		.cfi_endproc
 2896              	.LFE261:
 2898 0012 00BF     		.section	.init_array,"aw",%init_array
 2899              		.align	2
 2900 0000 00000000 		.word	_GLOBAL__sub_I_ReceiveState(target1)
 2901              		.text
 2902              	.Letext0:
 2903              		.file 7 "/opt/gcc-arm-none-eabi-4_7-2013q3/bin/../lib/gcc/arm-none-eabi/4.7.4/../../../../arm-none
 2904              		.file 8 "/home/rodos/Discovery_WorkSpace_Updated/rodos/api/listelement.h"
 2905              		.file 9 "/home/rodos/Discovery_WorkSpace_Updated/rodos/api/hal/hal_uart.h"
 2906              		.file 10 "/home/rodos/Discovery_WorkSpace_Updated/rodos/api/string_pico.h"
 2907              		.file 11 "/home/rodos/Discovery_WorkSpace_Updated/rodos/api/hal/hal_gpio.h"
 2908              		.file 12 "/home/rodos/Discovery_WorkSpace_Updated/rodos/api/rodos.h"