   1              		.syntax unified
   2              		.cpu cortex-m4
   3              		.eabi_attribute 27, 3
   4              		.fpu fpv4-sp-d16
   5              		.eabi_attribute 20, 1
   6              		.eabi_attribute 21, 1
   7              		.eabi_attribute 23, 3
   8              		.eabi_attribute 24, 1
   9              		.eabi_attribute 25, 1
  10              		.eabi_attribute 26, 1
  11              		.eabi_attribute 30, 6
  12              		.eabi_attribute 34, 1
  13              		.eabi_attribute 18, 4
  14              		.thumb
  15              		.file	"Task.cpp"
  16              		.text
  17              	.Ltext0:
  18              		.cfi_sections	.debug_frame
  19              		.section	.text._ZN5RODOS6Thread4initEv,"axG",%progbits,_ZN5RODOS6Thread4initEv,comdat
  20              		.align	2
  21              		.weak	_ZN5RODOS6Thread4initEv
  22              		.thumb
  23              		.thumb_func
  25              	_ZN5RODOS6Thread4initEv:
  26              	.LFB18:
  27              		.file 1 "/home/rodos/Discovery_WorkSpace_Updated/rodos/api/thread.h"
   1:/home/rodos/Discovery_WorkSpace_Updated/rodos/api/thread.h **** 
   2:/home/rodos/Discovery_WorkSpace_Updated/rodos/api/thread.h **** 
   3:/home/rodos/Discovery_WorkSpace_Updated/rodos/api/thread.h **** /*********************************************************** Copyright
   4:/home/rodos/Discovery_WorkSpace_Updated/rodos/api/thread.h ****  **
   5:/home/rodos/Discovery_WorkSpace_Updated/rodos/api/thread.h ****  ** Copyright (c) 2008, German Aerospace Center (DLR)
   6:/home/rodos/Discovery_WorkSpace_Updated/rodos/api/thread.h ****  ** All rights reserved.
   7:/home/rodos/Discovery_WorkSpace_Updated/rodos/api/thread.h ****  **
   8:/home/rodos/Discovery_WorkSpace_Updated/rodos/api/thread.h ****  ** Redistribution and use in source and binary forms, with or without
   9:/home/rodos/Discovery_WorkSpace_Updated/rodos/api/thread.h ****  ** modification, are permitted provided that the following conditions are
  10:/home/rodos/Discovery_WorkSpace_Updated/rodos/api/thread.h ****  ** met:
  11:/home/rodos/Discovery_WorkSpace_Updated/rodos/api/thread.h ****  **
  12:/home/rodos/Discovery_WorkSpace_Updated/rodos/api/thread.h ****  ** 1 Redistributions of source code must retain the above copyright
  13:/home/rodos/Discovery_WorkSpace_Updated/rodos/api/thread.h ****  **   notice, this list of conditions and the following disclaimer.
  14:/home/rodos/Discovery_WorkSpace_Updated/rodos/api/thread.h ****  **
  15:/home/rodos/Discovery_WorkSpace_Updated/rodos/api/thread.h ****  ** 2 Redistributions in binary form must reproduce the above copyright
  16:/home/rodos/Discovery_WorkSpace_Updated/rodos/api/thread.h ****  **   notice, this list of conditions and the following disclaimer in the
  17:/home/rodos/Discovery_WorkSpace_Updated/rodos/api/thread.h ****  **   documentation and/or other materials provided with the
  18:/home/rodos/Discovery_WorkSpace_Updated/rodos/api/thread.h ****  **   distribution.
  19:/home/rodos/Discovery_WorkSpace_Updated/rodos/api/thread.h ****  **
  20:/home/rodos/Discovery_WorkSpace_Updated/rodos/api/thread.h ****  ** 3 Neither the name of the German Aerospace Center nor the names of
  21:/home/rodos/Discovery_WorkSpace_Updated/rodos/api/thread.h ****  **   its contributors may be used to endorse or promote products derived
  22:/home/rodos/Discovery_WorkSpace_Updated/rodos/api/thread.h ****  **   from this software without specific prior written permission.
  23:/home/rodos/Discovery_WorkSpace_Updated/rodos/api/thread.h ****  **
  24:/home/rodos/Discovery_WorkSpace_Updated/rodos/api/thread.h ****  ** THIS SOFTWARE IS PROVIDED BY THE COPYRIGHT HOLDERS AND CONTRIBUTORS
  25:/home/rodos/Discovery_WorkSpace_Updated/rodos/api/thread.h ****  ** "AS IS" AND ANY EXPRESS OR IMPLIED WARRANTIES, INCLUDING, BUT NOT
  26:/home/rodos/Discovery_WorkSpace_Updated/rodos/api/thread.h ****  ** LIMITED TO, THE IMPLIED WARRANTIES OF MERCHANTABILITY AND FITNESS FOR
  27:/home/rodos/Discovery_WorkSpace_Updated/rodos/api/thread.h ****  ** A PARTICULAR PURPOSE ARE DISCLAIMED. IN NO EVENT SHALL THE COPYRIGHT
  28:/home/rodos/Discovery_WorkSpace_Updated/rodos/api/thread.h ****  ** OWNER OR CONTRIBUTORS BE LIABLE FOR ANY DIRECT, INDIRECT, INCIDENTAL,
  29:/home/rodos/Discovery_WorkSpace_Updated/rodos/api/thread.h ****  ** SPECIAL, EXEMPLARY, OR CONSEQUENTIAL DAMAGES (INCLUDING, BUT NOT
  30:/home/rodos/Discovery_WorkSpace_Updated/rodos/api/thread.h ****  ** LIMITED TO, PROCUREMENT OF SUBSTITUTE GOODS OR SERVICES; LOSS OF USE,
  31:/home/rodos/Discovery_WorkSpace_Updated/rodos/api/thread.h ****  ** DATA, OR PROFITS; OR BUSINESS INTERRUPTION) HOWEVER CAUSED AND ON ANY
  32:/home/rodos/Discovery_WorkSpace_Updated/rodos/api/thread.h ****  ** THEORY OF LIABILITY, WHETHER IN CONTRACT, STRICT LIABILITY, OR TORT
  33:/home/rodos/Discovery_WorkSpace_Updated/rodos/api/thread.h ****  ** (INCLUDING NEGLIGENCE OR OTHERWISE) ARISING IN ANY WAY OUT OF THE USE
  34:/home/rodos/Discovery_WorkSpace_Updated/rodos/api/thread.h ****  ** OF THIS SOFTWARE, EVEN IF ADVISED OF THE POSSIBILITY OF SUCH DAMAGE.
  35:/home/rodos/Discovery_WorkSpace_Updated/rodos/api/thread.h ****  **
  36:/home/rodos/Discovery_WorkSpace_Updated/rodos/api/thread.h ****  ****************************************************************************/
  37:/home/rodos/Discovery_WorkSpace_Updated/rodos/api/thread.h **** 
  38:/home/rodos/Discovery_WorkSpace_Updated/rodos/api/thread.h **** 
  39:/home/rodos/Discovery_WorkSpace_Updated/rodos/api/thread.h **** /**
  40:/home/rodos/Discovery_WorkSpace_Updated/rodos/api/thread.h **** * @file thread.h
  41:/home/rodos/Discovery_WorkSpace_Updated/rodos/api/thread.h **** * @date 2008/05/04 16:21
  42:/home/rodos/Discovery_WorkSpace_Updated/rodos/api/thread.h **** * @author Lutz Dittrich, Sergio Montenegro
  43:/home/rodos/Discovery_WorkSpace_Updated/rodos/api/thread.h **** *
  44:/home/rodos/Discovery_WorkSpace_Updated/rodos/api/thread.h **** * Copyright 2008 DLR
  45:/home/rodos/Discovery_WorkSpace_Updated/rodos/api/thread.h **** *
  46:/home/rodos/Discovery_WorkSpace_Updated/rodos/api/thread.h **** * A Thread is an active schedulable object with own context and stack
  47:/home/rodos/Discovery_WorkSpace_Updated/rodos/api/thread.h **** *
  48:/home/rodos/Discovery_WorkSpace_Updated/rodos/api/thread.h **** * @brief %A %thread (thread)
  49:/home/rodos/Discovery_WorkSpace_Updated/rodos/api/thread.h **** */
  50:/home/rodos/Discovery_WorkSpace_Updated/rodos/api/thread.h **** 
  51:/home/rodos/Discovery_WorkSpace_Updated/rodos/api/thread.h **** #ifndef __THREAD_H__
  52:/home/rodos/Discovery_WorkSpace_Updated/rodos/api/thread.h **** #define __THREAD_H__
  53:/home/rodos/Discovery_WorkSpace_Updated/rodos/api/thread.h **** 
  54:/home/rodos/Discovery_WorkSpace_Updated/rodos/api/thread.h **** #include "listelement.h" // required when compilng with posix
  55:/home/rodos/Discovery_WorkSpace_Updated/rodos/api/thread.h **** #include "timemodel.h"
  56:/home/rodos/Discovery_WorkSpace_Updated/rodos/api/thread.h **** #include "params.h"
  57:/home/rodos/Discovery_WorkSpace_Updated/rodos/api/thread.h **** 
  58:/home/rodos/Discovery_WorkSpace_Updated/rodos/api/thread.h **** 
  59:/home/rodos/Discovery_WorkSpace_Updated/rodos/api/thread.h **** #ifndef NO_RODOS_NAMESPACE
  60:/home/rodos/Discovery_WorkSpace_Updated/rodos/api/thread.h **** namespace RODOS {
  61:/home/rodos/Discovery_WorkSpace_Updated/rodos/api/thread.h **** #endif
  62:/home/rodos/Discovery_WorkSpace_Updated/rodos/api/thread.h **** 
  63:/home/rodos/Discovery_WorkSpace_Updated/rodos/api/thread.h **** extern "C" {
  64:/home/rodos/Discovery_WorkSpace_Updated/rodos/api/thread.h ****   void schedulerWrapper(long* ctx);
  65:/home/rodos/Discovery_WorkSpace_Updated/rodos/api/thread.h **** }
  66:/home/rodos/Discovery_WorkSpace_Updated/rodos/api/thread.h **** 
  67:/home/rodos/Discovery_WorkSpace_Updated/rodos/api/thread.h **** 
  68:/home/rodos/Discovery_WorkSpace_Updated/rodos/api/thread.h **** /**
  69:/home/rodos/Discovery_WorkSpace_Updated/rodos/api/thread.h **** * @class Thread
  70:/home/rodos/Discovery_WorkSpace_Updated/rodos/api/thread.h **** * @brief %Thread provides stack and context management
  71:/home/rodos/Discovery_WorkSpace_Updated/rodos/api/thread.h **** */
  72:/home/rodos/Discovery_WorkSpace_Updated/rodos/api/thread.h **** class Thread : public ListElement {
  73:/home/rodos/Discovery_WorkSpace_Updated/rodos/api/thread.h ****   friend void schedulerWrapper(long* ctx);
  74:/home/rodos/Discovery_WorkSpace_Updated/rodos/api/thread.h ****   friend void threadStartupWrapper(Thread*);
  75:/home/rodos/Discovery_WorkSpace_Updated/rodos/api/thread.h ****   friend void initSystem();
  76:/home/rodos/Discovery_WorkSpace_Updated/rodos/api/thread.h ****   friend void startIdleThread();
  77:/home/rodos/Discovery_WorkSpace_Updated/rodos/api/thread.h ****   friend class Scheduler;
  78:/home/rodos/Discovery_WorkSpace_Updated/rodos/api/thread.h ****   friend class ThreadChecker; // not in RODOS, maybe created by users
  79:/home/rodos/Discovery_WorkSpace_Updated/rodos/api/thread.h ****   friend class GenericIOInterface;
  80:/home/rodos/Discovery_WorkSpace_Updated/rodos/api/thread.h **** 
  81:/home/rodos/Discovery_WorkSpace_Updated/rodos/api/thread.h **** private:
  82:/home/rodos/Discovery_WorkSpace_Updated/rodos/api/thread.h ****   static List threadList; ///< List of all threads
  83:/home/rodos/Discovery_WorkSpace_Updated/rodos/api/thread.h ****   long stackSize; 	  ///< size of the thread's stack in bytes
  84:/home/rodos/Discovery_WorkSpace_Updated/rodos/api/thread.h ****   long* stack; 		  ///< pointer to the thread's stack (beginn high growing low)
  85:/home/rodos/Discovery_WorkSpace_Updated/rodos/api/thread.h ****   char* stackBegin;	  ///< stack growns down, this is the lower limit
  86:/home/rodos/Discovery_WorkSpace_Updated/rodos/api/thread.h ****   volatile long* context; ///< pointer to stored context
  87:/home/rodos/Discovery_WorkSpace_Updated/rodos/api/thread.h **** 
  88:/home/rodos/Discovery_WorkSpace_Updated/rodos/api/thread.h ****   // Activation control
  89:/home/rodos/Discovery_WorkSpace_Updated/rodos/api/thread.h ****   /**  priority of thread, higher values are serverd first  */
  90:/home/rodos/Discovery_WorkSpace_Updated/rodos/api/thread.h ****   volatile long priority;
  91:/home/rodos/Discovery_WorkSpace_Updated/rodos/api/thread.h **** 
  92:/home/rodos/Discovery_WorkSpace_Updated/rodos/api/thread.h ****   /** It will be activated only after this time */
  93:/home/rodos/Discovery_WorkSpace_Updated/rodos/api/thread.h ****   volatile TTime suspendedUntil;
  94:/home/rodos/Discovery_WorkSpace_Updated/rodos/api/thread.h **** 
  95:/home/rodos/Discovery_WorkSpace_Updated/rodos/api/thread.h ****   /** if waiting for reactivation from someone, eg semaphore */
  96:/home/rodos/Discovery_WorkSpace_Updated/rodos/api/thread.h ****   void* waitingFor;
  97:/home/rodos/Discovery_WorkSpace_Updated/rodos/api/thread.h **** 
  98:/home/rodos/Discovery_WorkSpace_Updated/rodos/api/thread.h ****   TTime nextBeat;  ///<  the next time to awake (used in wait)
  99:/home/rodos/Discovery_WorkSpace_Updated/rodos/api/thread.h ****   TTime period;    ///<  To repeate every period localTime units
 100:/home/rodos/Discovery_WorkSpace_Updated/rodos/api/thread.h **** 
 101:/home/rodos/Discovery_WorkSpace_Updated/rodos/api/thread.h ****   void create(); ///< called in main() after all constuctors, to create/init thread
 102:/home/rodos/Discovery_WorkSpace_Updated/rodos/api/thread.h **** 
 103:/home/rodos/Discovery_WorkSpace_Updated/rodos/api/thread.h ****   // Used only by the Scheduler and ThreadManager (friends)
 104:/home/rodos/Discovery_WorkSpace_Updated/rodos/api/thread.h ****   volatile unsigned long long lastActivation; ///< used by scheduling algorithm
 105:/home/rodos/Discovery_WorkSpace_Updated/rodos/api/thread.h ****   void activate(); ///< continue the execution of the thread
 106:/home/rodos/Discovery_WorkSpace_Updated/rodos/api/thread.h **** 
 107:/home/rodos/Discovery_WorkSpace_Updated/rodos/api/thread.h ****   static void initializeThreads(); ///< call the init method of all threads
 108:/home/rodos/Discovery_WorkSpace_Updated/rodos/api/thread.h ****   static Thread* currentThread; ///< pointer to currently running thread
 109:/home/rodos/Discovery_WorkSpace_Updated/rodos/api/thread.h **** 
 110:/home/rodos/Discovery_WorkSpace_Updated/rodos/api/thread.h **** public:
 111:/home/rodos/Discovery_WorkSpace_Updated/rodos/api/thread.h **** 
 112:/home/rodos/Discovery_WorkSpace_Updated/rodos/api/thread.h ****   /**
 113:/home/rodos/Discovery_WorkSpace_Updated/rodos/api/thread.h ****    * Initialization of the thread. A user should use a meaningful name for the thread.
 114:/home/rodos/Discovery_WorkSpace_Updated/rodos/api/thread.h ****    *
 115:/home/rodos/Discovery_WorkSpace_Updated/rodos/api/thread.h ****    * @param name Name of the thread.
 116:/home/rodos/Discovery_WorkSpace_Updated/rodos/api/thread.h ****    * @param priority The priority for the thread. Only the thread with the highest value from
 117:/home/rodos/Discovery_WorkSpace_Updated/rodos/api/thread.h ****    *        several runnable threads at a time get computing resources.
 118:/home/rodos/Discovery_WorkSpace_Updated/rodos/api/thread.h ****    * @param stackSize The size of the stack memory for the thread. Choice a matching value for
 119:/home/rodos/Discovery_WorkSpace_Updated/rodos/api/thread.h ****    *        the task of the thread.
 120:/home/rodos/Discovery_WorkSpace_Updated/rodos/api/thread.h ****    *
 121:/home/rodos/Discovery_WorkSpace_Updated/rodos/api/thread.h ****    * @see DEFAULT_THREAD_PRIORITY
 122:/home/rodos/Discovery_WorkSpace_Updated/rodos/api/thread.h ****    * @see DEFAULT_STACKSIZE
 123:/home/rodos/Discovery_WorkSpace_Updated/rodos/api/thread.h ****    */
 124:/home/rodos/Discovery_WorkSpace_Updated/rodos/api/thread.h ****   Thread(const char* name = "AnonymThread",
 125:/home/rodos/Discovery_WorkSpace_Updated/rodos/api/thread.h ****          const long priority = DEFAULT_THREAD_PRIORITY,
 126:/home/rodos/Discovery_WorkSpace_Updated/rodos/api/thread.h ****          const long stackSize = DEFAULT_STACKSIZE);
 127:/home/rodos/Discovery_WorkSpace_Updated/rodos/api/thread.h **** 
 128:/home/rodos/Discovery_WorkSpace_Updated/rodos/api/thread.h ****   /// Destructor
 129:/home/rodos/Discovery_WorkSpace_Updated/rodos/api/thread.h ****   virtual ~Thread();
 130:/home/rodos/Discovery_WorkSpace_Updated/rodos/api/thread.h **** 
 131:/home/rodos/Discovery_WorkSpace_Updated/rodos/api/thread.h ****   /**
 132:/home/rodos/Discovery_WorkSpace_Updated/rodos/api/thread.h ****    * Entry point for user code. The thread activities shall implement by overloading this method.
 133:/home/rodos/Discovery_WorkSpace_Updated/rodos/api/thread.h ****    */
 134:/home/rodos/Discovery_WorkSpace_Updated/rodos/api/thread.h ****   virtual void run() = 0;
 135:/home/rodos/Discovery_WorkSpace_Updated/rodos/api/thread.h **** 
 136:/home/rodos/Discovery_WorkSpace_Updated/rodos/api/thread.h ****   /**
 137:/home/rodos/Discovery_WorkSpace_Updated/rodos/api/thread.h ****    * The method is called after all constructors are executed and before the threads are activated
 138:/home/rodos/Discovery_WorkSpace_Updated/rodos/api/thread.h ****    * by a call to the method run.
 139:/home/rodos/Discovery_WorkSpace_Updated/rodos/api/thread.h ****    *
 140:/home/rodos/Discovery_WorkSpace_Updated/rodos/api/thread.h ****    * It should be overloaded in case the thread has to call other objects for the initialization,
 141:/home/rodos/Discovery_WorkSpace_Updated/rodos/api/thread.h ****    * hence after all instances are present and before any run method is invoked.
 142:/home/rodos/Discovery_WorkSpace_Updated/rodos/api/thread.h ****    *
 143:/home/rodos/Discovery_WorkSpace_Updated/rodos/api/thread.h ****    * @see run
 144:/home/rodos/Discovery_WorkSpace_Updated/rodos/api/thread.h ****    */
 145:/home/rodos/Discovery_WorkSpace_Updated/rodos/api/thread.h ****   virtual void init() {}
  28              		.loc 1 145 0
  29              		.cfi_startproc
  30              		@ args = 0, pretend = 0, frame = 8
  31              		@ frame_needed = 1, uses_anonymous_args = 0
  32              		@ link register save eliminated.
  33 0000 80B4     		push	{r7}
  34              	.LCFI0:
  35              		.cfi_def_cfa_offset 4
  36              		.cfi_offset 7, -4
  37 0002 83B0     		sub	sp, sp, #12
  38              	.LCFI1:
  39              		.cfi_def_cfa_offset 16
  40 0004 00AF     		add	r7, sp, #0
  41              	.LCFI2:
  42              		.cfi_def_cfa_register 7
  43 0006 7860     		str	r0, [r7, #4]
  44              		.loc 1 145 0
  45 0008 07F10C07 		add	r7, r7, #12
  46 000c BD46     		mov	sp, r7
  47 000e 80BC     		pop	{r7}
  48 0010 7047     		bx	lr
  49              		.cfi_endproc
  50              	.LFE18:
  52 0012 00BF     		.section	.rodata
  53              		.align	2
  54              	.LC3:
  55 0000 546F7069 		.ascii	"Topic Deleted\000"
  55      63204465 
  55      6C657465 
  55      6400
  56              		.section	.text._ZN5RODOS14TopicInterfaceD2Ev,"axG",%progbits,_ZN5RODOS14TopicInterfaceD5Ev,comdat
  57              		.align	2
  58              		.weak	_ZN5RODOS14TopicInterfaceD2Ev
  59              		.thumb
  60              		.thumb_func
  62              	_ZN5RODOS14TopicInterfaceD2Ev:
  63              	.LFB55:
  64              		.file 2 "/home/rodos/Discovery_WorkSpace_Updated/rodos/api/topic.h"
   1:/home/rodos/Discovery_WorkSpace_Updated/rodos/api/topic.h **** 
   2:/home/rodos/Discovery_WorkSpace_Updated/rodos/api/topic.h **** 
   3:/home/rodos/Discovery_WorkSpace_Updated/rodos/api/topic.h **** /*********************************************************** Copyright
   4:/home/rodos/Discovery_WorkSpace_Updated/rodos/api/topic.h ****  **
   5:/home/rodos/Discovery_WorkSpace_Updated/rodos/api/topic.h ****  ** Copyright (c) 2008, German Aerospace Center (DLR)
   6:/home/rodos/Discovery_WorkSpace_Updated/rodos/api/topic.h ****  ** All rights reserved.
   7:/home/rodos/Discovery_WorkSpace_Updated/rodos/api/topic.h ****  **
   8:/home/rodos/Discovery_WorkSpace_Updated/rodos/api/topic.h ****  ** Redistribution and use in source and binary forms, with or without
   9:/home/rodos/Discovery_WorkSpace_Updated/rodos/api/topic.h ****  ** modification, are permitted provided that the following conditions are
  10:/home/rodos/Discovery_WorkSpace_Updated/rodos/api/topic.h ****  ** met:
  11:/home/rodos/Discovery_WorkSpace_Updated/rodos/api/topic.h ****  **
  12:/home/rodos/Discovery_WorkSpace_Updated/rodos/api/topic.h ****  ** 1 Redistributions of source code must retain the above copyright
  13:/home/rodos/Discovery_WorkSpace_Updated/rodos/api/topic.h ****  **   notice, this list of conditions and the following disclaimer.
  14:/home/rodos/Discovery_WorkSpace_Updated/rodos/api/topic.h ****  **
  15:/home/rodos/Discovery_WorkSpace_Updated/rodos/api/topic.h ****  ** 2 Redistributions in binary form must reproduce the above copyright
  16:/home/rodos/Discovery_WorkSpace_Updated/rodos/api/topic.h ****  **   notice, this list of conditions and the following disclaimer in the
  17:/home/rodos/Discovery_WorkSpace_Updated/rodos/api/topic.h ****  **   documentation and/or other materials provided with the
  18:/home/rodos/Discovery_WorkSpace_Updated/rodos/api/topic.h ****  **   distribution.
  19:/home/rodos/Discovery_WorkSpace_Updated/rodos/api/topic.h ****  **
  20:/home/rodos/Discovery_WorkSpace_Updated/rodos/api/topic.h ****  ** 3 Neither the name of the German Aerospace Center nor the names of
  21:/home/rodos/Discovery_WorkSpace_Updated/rodos/api/topic.h ****  **   its contributors may be used to endorse or promote products derived
  22:/home/rodos/Discovery_WorkSpace_Updated/rodos/api/topic.h ****  **   from this software without specific prior written permission.
  23:/home/rodos/Discovery_WorkSpace_Updated/rodos/api/topic.h ****  **
  24:/home/rodos/Discovery_WorkSpace_Updated/rodos/api/topic.h ****  ** THIS SOFTWARE IS PROVIDED BY THE COPYRIGHT HOLDERS AND CONTRIBUTORS
  25:/home/rodos/Discovery_WorkSpace_Updated/rodos/api/topic.h ****  ** "AS IS" AND ANY EXPRESS OR IMPLIED WARRANTIES, INCLUDING, BUT NOT
  26:/home/rodos/Discovery_WorkSpace_Updated/rodos/api/topic.h ****  ** LIMITED TO, THE IMPLIED WARRANTIES OF MERCHANTABILITY AND FITNESS FOR
  27:/home/rodos/Discovery_WorkSpace_Updated/rodos/api/topic.h ****  ** A PARTICULAR PURPOSE ARE DISCLAIMED. IN NO EVENT SHALL THE COPYRIGHT
  28:/home/rodos/Discovery_WorkSpace_Updated/rodos/api/topic.h ****  ** OWNER OR CONTRIBUTORS BE LIABLE FOR ANY DIRECT, INDIRECT, INCIDENTAL,
  29:/home/rodos/Discovery_WorkSpace_Updated/rodos/api/topic.h ****  ** SPECIAL, EXEMPLARY, OR CONSEQUENTIAL DAMAGES (INCLUDING, BUT NOT
  30:/home/rodos/Discovery_WorkSpace_Updated/rodos/api/topic.h ****  ** LIMITED TO, PROCUREMENT OF SUBSTITUTE GOODS OR SERVICES; LOSS OF USE,
  31:/home/rodos/Discovery_WorkSpace_Updated/rodos/api/topic.h ****  ** DATA, OR PROFITS; OR BUSINESS INTERRUPTION) HOWEVER CAUSED AND ON ANY
  32:/home/rodos/Discovery_WorkSpace_Updated/rodos/api/topic.h ****  ** THEORY OF LIABILITY, WHETHER IN CONTRACT, STRICT LIABILITY, OR TORT
  33:/home/rodos/Discovery_WorkSpace_Updated/rodos/api/topic.h ****  ** (INCLUDING NEGLIGENCE OR OTHERWISE) ARISING IN ANY WAY OUT OF THE USE
  34:/home/rodos/Discovery_WorkSpace_Updated/rodos/api/topic.h ****  ** OF THIS SOFTWARE, EVEN IF ADVISED OF THE POSSIBILITY OF SUCH DAMAGE.
  35:/home/rodos/Discovery_WorkSpace_Updated/rodos/api/topic.h ****  **
  36:/home/rodos/Discovery_WorkSpace_Updated/rodos/api/topic.h ****  ****************************************************************************/
  37:/home/rodos/Discovery_WorkSpace_Updated/rodos/api/topic.h **** 
  38:/home/rodos/Discovery_WorkSpace_Updated/rodos/api/topic.h **** 
  39:/home/rodos/Discovery_WorkSpace_Updated/rodos/api/topic.h **** 
  40:/home/rodos/Discovery_WorkSpace_Updated/rodos/api/topic.h **** /**
  41:/home/rodos/Discovery_WorkSpace_Updated/rodos/api/topic.h ****  * @file topic.h
  42:/home/rodos/Discovery_WorkSpace_Updated/rodos/api/topic.h ****  * @date 2008/09/01 7:07
  43:/home/rodos/Discovery_WorkSpace_Updated/rodos/api/topic.h ****  * @author Sergio Montenegro
  44:/home/rodos/Discovery_WorkSpace_Updated/rodos/api/topic.h ****  *
  45:/home/rodos/Discovery_WorkSpace_Updated/rodos/api/topic.h ****  * Copyright 2008 DLR
  46:/home/rodos/Discovery_WorkSpace_Updated/rodos/api/topic.h ****  *
  47:/home/rodos/Discovery_WorkSpace_Updated/rodos/api/topic.h ****  * @brief topic for middleware
  48:/home/rodos/Discovery_WorkSpace_Updated/rodos/api/topic.h ****  *
  49:/home/rodos/Discovery_WorkSpace_Updated/rodos/api/topic.h ****  */
  50:/home/rodos/Discovery_WorkSpace_Updated/rodos/api/topic.h **** 
  51:/home/rodos/Discovery_WorkSpace_Updated/rodos/api/topic.h **** #pragma once
  52:/home/rodos/Discovery_WorkSpace_Updated/rodos/api/topic.h **** 
  53:/home/rodos/Discovery_WorkSpace_Updated/rodos/api/topic.h **** #include "debug.h"
  54:/home/rodos/Discovery_WorkSpace_Updated/rodos/api/topic.h **** #include "gateway/networkmessage.h"
  55:/home/rodos/Discovery_WorkSpace_Updated/rodos/api/topic.h **** 
  56:/home/rodos/Discovery_WorkSpace_Updated/rodos/api/topic.h **** #ifndef NO_RODOS_NAMESPACE
  57:/home/rodos/Discovery_WorkSpace_Updated/rodos/api/topic.h **** namespace RODOS {
  58:/home/rodos/Discovery_WorkSpace_Updated/rodos/api/topic.h **** #endif
  59:/home/rodos/Discovery_WorkSpace_Updated/rodos/api/topic.h **** 
  60:/home/rodos/Discovery_WorkSpace_Updated/rodos/api/topic.h **** class NetMsgInfo;
  61:/home/rodos/Discovery_WorkSpace_Updated/rodos/api/topic.h **** class TopicFilter;
  62:/home/rodos/Discovery_WorkSpace_Updated/rodos/api/topic.h **** 
  63:/home/rodos/Discovery_WorkSpace_Updated/rodos/api/topic.h **** #define	RODOS_LOCAL_BROADCAST	0
  64:/home/rodos/Discovery_WorkSpace_Updated/rodos/api/topic.h **** 
  65:/home/rodos/Discovery_WorkSpace_Updated/rodos/api/topic.h **** /**
  66:/home/rodos/Discovery_WorkSpace_Updated/rodos/api/topic.h ****  *  @class TopicInterface
  67:/home/rodos/Discovery_WorkSpace_Updated/rodos/api/topic.h ****  *  @brief TopicInterface only for internal use
  68:/home/rodos/Discovery_WorkSpace_Updated/rodos/api/topic.h ****  *
  69:/home/rodos/Discovery_WorkSpace_Updated/rodos/api/topic.h ****  *  The middleware communication is based on the publisher/subscriber protocol.
  70:/home/rodos/Discovery_WorkSpace_Updated/rodos/api/topic.h ****  *  Publishers make messages public under a given topic.
  71:/home/rodos/Discovery_WorkSpace_Updated/rodos/api/topic.h ****  *  Subscriber to a given topic get all messages which are published
  72:/home/rodos/Discovery_WorkSpace_Updated/rodos/api/topic.h ****  *  under the given topic.
  73:/home/rodos/Discovery_WorkSpace_Updated/rodos/api/topic.h ****  * To establish a transfer path, both,
  74:/home/rodos/Discovery_WorkSpace_Updated/rodos/api/topic.h ****  * publisher and subscriber have to share the same topic.
  75:/home/rodos/Discovery_WorkSpace_Updated/rodos/api/topic.h ****  *
  76:/home/rodos/Discovery_WorkSpace_Updated/rodos/api/topic.h ****  * A Topic is a pair: data-type and an integer representing
  77:/home/rodos/Discovery_WorkSpace_Updated/rodos/api/topic.h ****  * a topic identifier.
  78:/home/rodos/Discovery_WorkSpace_Updated/rodos/api/topic.h ****  *
  79:/home/rodos/Discovery_WorkSpace_Updated/rodos/api/topic.h ****  * To access topics in an generic way which is independent of
  80:/home/rodos/Discovery_WorkSpace_Updated/rodos/api/topic.h ****  * data type and topicId, a TopicInterface is created.
  81:/home/rodos/Discovery_WorkSpace_Updated/rodos/api/topic.h ****  *
  82:/home/rodos/Discovery_WorkSpace_Updated/rodos/api/topic.h ****  */
  83:/home/rodos/Discovery_WorkSpace_Updated/rodos/api/topic.h **** 
  84:/home/rodos/Discovery_WorkSpace_Updated/rodos/api/topic.h **** class TopicInterface : public ListElement {
  85:/home/rodos/Discovery_WorkSpace_Updated/rodos/api/topic.h **** 
  86:/home/rodos/Discovery_WorkSpace_Updated/rodos/api/topic.h **** 	friend void initSystem();
  87:/home/rodos/Discovery_WorkSpace_Updated/rodos/api/topic.h **** 	friend class Gateway;
  88:/home/rodos/Discovery_WorkSpace_Updated/rodos/api/topic.h **** 	friend class Subscriber;
  89:/home/rodos/Discovery_WorkSpace_Updated/rodos/api/topic.h **** 	// friend class NetworkPoller; // TODO remove this
  90:/home/rodos/Discovery_WorkSpace_Updated/rodos/api/topic.h **** 	friend class TopicReporter;
  91:/home/rodos/Discovery_WorkSpace_Updated/rodos/api/topic.h **** 
  92:/home/rodos/Discovery_WorkSpace_Updated/rodos/api/topic.h **** public:
  93:/home/rodos/Discovery_WorkSpace_Updated/rodos/api/topic.h **** 
  94:/home/rodos/Discovery_WorkSpace_Updated/rodos/api/topic.h **** 
  95:/home/rodos/Discovery_WorkSpace_Updated/rodos/api/topic.h **** //protected:
  96:/home/rodos/Discovery_WorkSpace_Updated/rodos/api/topic.h **** 	static List topicList; ///< List of all topics present in the system
  97:/home/rodos/Discovery_WorkSpace_Updated/rodos/api/topic.h **** 	List mySubscribers; ///< List of pointers to subscribers associated to one topic instance
  98:/home/rodos/Discovery_WorkSpace_Updated/rodos/api/topic.h ****         TopicFilter* topicFilter; ///< a filter may modify the content of the message befor the sub
  99:/home/rodos/Discovery_WorkSpace_Updated/rodos/api/topic.h ****         
 100:/home/rodos/Discovery_WorkSpace_Updated/rodos/api/topic.h **** 	long topicId; ///< Topic ID used for identification by network tramsmitions
 101:/home/rodos/Discovery_WorkSpace_Updated/rodos/api/topic.h **** 	long msgLen; ///< Size of message transfered via this topic
 102:/home/rodos/Discovery_WorkSpace_Updated/rodos/api/topic.h **** 
 103:/home/rodos/Discovery_WorkSpace_Updated/rodos/api/topic.h **** 
 104:/home/rodos/Discovery_WorkSpace_Updated/rodos/api/topic.h **** 
 105:/home/rodos/Discovery_WorkSpace_Updated/rodos/api/topic.h **** public:
 106:/home/rodos/Discovery_WorkSpace_Updated/rodos/api/topic.h **** 
 107:/home/rodos/Discovery_WorkSpace_Updated/rodos/api/topic.h ****     TopicInterface(long id, long len, const char* name);
 108:/home/rodos/Discovery_WorkSpace_Updated/rodos/api/topic.h **** 
 109:/home/rodos/Discovery_WorkSpace_Updated/rodos/api/topic.h ****     virtual ~TopicInterface() { ERROR("Topic Deleted"); }
  65              		.loc 2 109 0
  66              		.cfi_startproc
  67              		@ args = 0, pretend = 0, frame = 8
  68              		@ frame_needed = 1, uses_anonymous_args = 0
  69 0000 80B5     		push	{r7, lr}
  70              	.LCFI3:
  71              		.cfi_def_cfa_offset 8
  72              		.cfi_offset 7, -8
  73              		.cfi_offset 14, -4
  74 0002 82B0     		sub	sp, sp, #8
  75              	.LCFI4:
  76              		.cfi_def_cfa_offset 16
  77 0004 00AF     		add	r7, sp, #0
  78              	.LCFI5:
  79              		.cfi_def_cfa_register 7
  80 0006 7860     		str	r0, [r7, #4]
  81              	.LBB2:
  82              		.loc 2 109 0
  83 0008 7B68     		ldr	r3, [r7, #4]
  84 000a 0E4A     		ldr	r2, .L6
  85 000c 1A60     		str	r2, [r3, #0]
  86 000e 40F20000 		movw	r0, #:lower16:.LC3
  87 0012 C0F20000 		movt	r0, #:upper16:.LC3
  88 0016 FFF7FEFF 		bl	_ZN5RODOS5ERROREPKc
  89 001a 7B68     		ldr	r3, [r7, #4]
  90 001c 03F10403 		add	r3, r3, #4
  91 0020 1846     		mov	r0, r3
  92 0022 FFF7FEFF 		bl	_ZN5RODOS11ListElementD2Ev
  93              	.LBE2:
  94 0026 4FF00003 		mov	r3, #0
  95 002a 03F00103 		and	r3, r3, #1
  96 002e 002B     		cmp	r3, #0
  97 0030 02D0     		beq	.L4
  98              		.loc 2 109 0 is_stmt 0 discriminator 2
  99 0032 7868     		ldr	r0, [r7, #4]
 100 0034 FFF7FEFF 		bl	_ZdlPv
 101              	.L4:
 102              		.loc 2 109 0 discriminator 3
 103 0038 7B68     		ldr	r3, [r7, #4]
 104 003a 1846     		mov	r0, r3
 105 003c 07F10807 		add	r7, r7, #8
 106 0040 BD46     		mov	sp, r7
 107 0042 80BD     		pop	{r7, pc}
 108              	.L7:
 109              		.align	2
 110              	.L6:
 111 0044 08000000 		.word	_ZTVN5RODOS14TopicInterfaceE+8
 112              		.cfi_endproc
 113              	.LFE55:
 115              		.weak	_ZN5RODOS14TopicInterfaceD1Ev
 116              		.thumb_set _ZN5RODOS14TopicInterfaceD1Ev,_ZN5RODOS14TopicInterfaceD2Ev
 117              		.section	.text._ZN5RODOS14TopicInterfaceD0Ev,"axG",%progbits,_ZN5RODOS14TopicInterfaceD0Ev,comdat
 118              		.align	2
 119              		.weak	_ZN5RODOS14TopicInterfaceD0Ev
 120              		.thumb
 121              		.thumb_func
 123              	_ZN5RODOS14TopicInterfaceD0Ev:
 124              	.LFB57:
 125              		.loc 2 109 0 is_stmt 1
 126              		.cfi_startproc
 127              		@ args = 0, pretend = 0, frame = 8
 128              		@ frame_needed = 1, uses_anonymous_args = 0
 129 0000 80B5     		push	{r7, lr}
 130              	.LCFI6:
 131              		.cfi_def_cfa_offset 8
 132              		.cfi_offset 7, -8
 133              		.cfi_offset 14, -4
 134 0002 82B0     		sub	sp, sp, #8
 135              	.LCFI7:
 136              		.cfi_def_cfa_offset 16
 137 0004 00AF     		add	r7, sp, #0
 138              	.LCFI8:
 139              		.cfi_def_cfa_register 7
 140 0006 7860     		str	r0, [r7, #4]
 141              		.loc 2 109 0
 142 0008 7868     		ldr	r0, [r7, #4]
 143 000a FFF7FEFF 		bl	_ZN5RODOS14TopicInterfaceD1Ev
 144 000e 7868     		ldr	r0, [r7, #4]
 145 0010 FFF7FEFF 		bl	_ZdlPv
 146 0014 7B68     		ldr	r3, [r7, #4]
 147 0016 1846     		mov	r0, r3
 148 0018 07F10807 		add	r7, r7, #8
 149 001c BD46     		mov	sp, r7
 150 001e 80BD     		pop	{r7, pc}
 151              		.cfi_endproc
 152              	.LFE57:
 154              		.section	.rodata
 155 000e 0000     		.align	2
 156              	.LC4:
 157 0010 53756273 		.ascii	"Subscriber deleted\000"
 157      63726962 
 157      65722064 
 157      656C6574 
 157      656400
 158              		.section	.text._ZN5RODOS10SubscriberD2Ev,"axG",%progbits,_ZN5RODOS10SubscriberD5Ev,comdat
 159              		.align	2
 160              		.weak	_ZN5RODOS10SubscriberD2Ev
 161              		.thumb
 162              		.thumb_func
 164              	_ZN5RODOS10SubscriberD2Ev:
 165              	.LFB69:
 166              		.file 3 "/home/rodos/Discovery_WorkSpace_Updated/rodos/api/subscriber.h"
   1:/home/rodos/Discovery_WorkSpace_Updated/rodos/api/subscriber.h **** 
   2:/home/rodos/Discovery_WorkSpace_Updated/rodos/api/subscriber.h **** 
   3:/home/rodos/Discovery_WorkSpace_Updated/rodos/api/subscriber.h **** /*********************************************************** Copyright
   4:/home/rodos/Discovery_WorkSpace_Updated/rodos/api/subscriber.h ****  **
   5:/home/rodos/Discovery_WorkSpace_Updated/rodos/api/subscriber.h ****  ** Copyright (c) 2008, German Aerospace Center (DLR)
   6:/home/rodos/Discovery_WorkSpace_Updated/rodos/api/subscriber.h ****  ** All rights reserved.
   7:/home/rodos/Discovery_WorkSpace_Updated/rodos/api/subscriber.h ****  **
   8:/home/rodos/Discovery_WorkSpace_Updated/rodos/api/subscriber.h ****  ** Redistribution and use in source and binary forms, with or without
   9:/home/rodos/Discovery_WorkSpace_Updated/rodos/api/subscriber.h ****  ** modification, are permitted provided that the following conditions are
  10:/home/rodos/Discovery_WorkSpace_Updated/rodos/api/subscriber.h ****  ** met:
  11:/home/rodos/Discovery_WorkSpace_Updated/rodos/api/subscriber.h ****  **
  12:/home/rodos/Discovery_WorkSpace_Updated/rodos/api/subscriber.h ****  ** 1 Redistributions of source code must retain the above copyright
  13:/home/rodos/Discovery_WorkSpace_Updated/rodos/api/subscriber.h ****  **   notice, this list of conditions and the following disclaimer.
  14:/home/rodos/Discovery_WorkSpace_Updated/rodos/api/subscriber.h ****  **
  15:/home/rodos/Discovery_WorkSpace_Updated/rodos/api/subscriber.h ****  ** 2 Redistributions in binary form must reproduce the above copyright
  16:/home/rodos/Discovery_WorkSpace_Updated/rodos/api/subscriber.h ****  **   notice, this list of conditions and the following disclaimer in the
  17:/home/rodos/Discovery_WorkSpace_Updated/rodos/api/subscriber.h ****  **   documentation and/or other materials provided with the
  18:/home/rodos/Discovery_WorkSpace_Updated/rodos/api/subscriber.h ****  **   distribution.
  19:/home/rodos/Discovery_WorkSpace_Updated/rodos/api/subscriber.h ****  **
  20:/home/rodos/Discovery_WorkSpace_Updated/rodos/api/subscriber.h ****  ** 3 Neither the name of the German Aerospace Center nor the names of
  21:/home/rodos/Discovery_WorkSpace_Updated/rodos/api/subscriber.h ****  **   its contributors may be used to endorse or promote products derived
  22:/home/rodos/Discovery_WorkSpace_Updated/rodos/api/subscriber.h ****  **   from this software without specific prior written permission.
  23:/home/rodos/Discovery_WorkSpace_Updated/rodos/api/subscriber.h ****  **
  24:/home/rodos/Discovery_WorkSpace_Updated/rodos/api/subscriber.h ****  ** THIS SOFTWARE IS PROVIDED BY THE COPYRIGHT HOLDERS AND CONTRIBUTORS
  25:/home/rodos/Discovery_WorkSpace_Updated/rodos/api/subscriber.h ****  ** "AS IS" AND ANY EXPRESS OR IMPLIED WARRANTIES, INCLUDING, BUT NOT
  26:/home/rodos/Discovery_WorkSpace_Updated/rodos/api/subscriber.h ****  ** LIMITED TO, THE IMPLIED WARRANTIES OF MERCHANTABILITY AND FITNESS FOR
  27:/home/rodos/Discovery_WorkSpace_Updated/rodos/api/subscriber.h ****  ** A PARTICULAR PURPOSE ARE DISCLAIMED. IN NO EVENT SHALL THE COPYRIGHT
  28:/home/rodos/Discovery_WorkSpace_Updated/rodos/api/subscriber.h ****  ** OWNER OR CONTRIBUTORS BE LIABLE FOR ANY DIRECT, INDIRECT, INCIDENTAL,
  29:/home/rodos/Discovery_WorkSpace_Updated/rodos/api/subscriber.h ****  ** SPECIAL, EXEMPLARY, OR CONSEQUENTIAL DAMAGES (INCLUDING, BUT NOT
  30:/home/rodos/Discovery_WorkSpace_Updated/rodos/api/subscriber.h ****  ** LIMITED TO, PROCUREMENT OF SUBSTITUTE GOODS OR SERVICES; LOSS OF USE,
  31:/home/rodos/Discovery_WorkSpace_Updated/rodos/api/subscriber.h ****  ** DATA, OR PROFITS; OR BUSINESS INTERRUPTION) HOWEVER CAUSED AND ON ANY
  32:/home/rodos/Discovery_WorkSpace_Updated/rodos/api/subscriber.h ****  ** THEORY OF LIABILITY, WHETHER IN CONTRACT, STRICT LIABILITY, OR TORT
  33:/home/rodos/Discovery_WorkSpace_Updated/rodos/api/subscriber.h ****  ** (INCLUDING NEGLIGENCE OR OTHERWISE) ARISING IN ANY WAY OUT OF THE USE
  34:/home/rodos/Discovery_WorkSpace_Updated/rodos/api/subscriber.h ****  ** OF THIS SOFTWARE, EVEN IF ADVISED OF THE POSSIBILITY OF SUCH DAMAGE.
  35:/home/rodos/Discovery_WorkSpace_Updated/rodos/api/subscriber.h ****  **
  36:/home/rodos/Discovery_WorkSpace_Updated/rodos/api/subscriber.h ****  ****************************************************************************/
  37:/home/rodos/Discovery_WorkSpace_Updated/rodos/api/subscriber.h **** 
  38:/home/rodos/Discovery_WorkSpace_Updated/rodos/api/subscriber.h **** 
  39:/home/rodos/Discovery_WorkSpace_Updated/rodos/api/subscriber.h **** /**
  40:/home/rodos/Discovery_WorkSpace_Updated/rodos/api/subscriber.h **** * @file subscriber.h
  41:/home/rodos/Discovery_WorkSpace_Updated/rodos/api/subscriber.h **** * @date 2008/09/01 7:07
  42:/home/rodos/Discovery_WorkSpace_Updated/rodos/api/subscriber.h **** * @author Sergio Montenegro
  43:/home/rodos/Discovery_WorkSpace_Updated/rodos/api/subscriber.h **** *
  44:/home/rodos/Discovery_WorkSpace_Updated/rodos/api/subscriber.h **** * Copyright 2008 DLR
  45:/home/rodos/Discovery_WorkSpace_Updated/rodos/api/subscriber.h **** *
  46:/home/rodos/Discovery_WorkSpace_Updated/rodos/api/subscriber.h **** * @brief subscribers for middleware
  47:/home/rodos/Discovery_WorkSpace_Updated/rodos/api/subscriber.h **** *
  48:/home/rodos/Discovery_WorkSpace_Updated/rodos/api/subscriber.h **** */
  49:/home/rodos/Discovery_WorkSpace_Updated/rodos/api/subscriber.h **** 
  50:/home/rodos/Discovery_WorkSpace_Updated/rodos/api/subscriber.h **** #pragma once
  51:/home/rodos/Discovery_WorkSpace_Updated/rodos/api/subscriber.h **** 
  52:/home/rodos/Discovery_WorkSpace_Updated/rodos/api/subscriber.h **** #include "semaphore.h"
  53:/home/rodos/Discovery_WorkSpace_Updated/rodos/api/subscriber.h **** #include "topic.h"
  54:/home/rodos/Discovery_WorkSpace_Updated/rodos/api/subscriber.h **** 
  55:/home/rodos/Discovery_WorkSpace_Updated/rodos/api/subscriber.h **** 
  56:/home/rodos/Discovery_WorkSpace_Updated/rodos/api/subscriber.h **** #ifndef NO_RODOS_NAMESPACE
  57:/home/rodos/Discovery_WorkSpace_Updated/rodos/api/subscriber.h **** namespace RODOS {
  58:/home/rodos/Discovery_WorkSpace_Updated/rodos/api/subscriber.h **** #endif
  59:/home/rodos/Discovery_WorkSpace_Updated/rodos/api/subscriber.h **** 
  60:/home/rodos/Discovery_WorkSpace_Updated/rodos/api/subscriber.h **** class Putter;
  61:/home/rodos/Discovery_WorkSpace_Updated/rodos/api/subscriber.h **** 
  62:/home/rodos/Discovery_WorkSpace_Updated/rodos/api/subscriber.h **** /**
  63:/home/rodos/Discovery_WorkSpace_Updated/rodos/api/subscriber.h **** * @class Subscriber
  64:/home/rodos/Discovery_WorkSpace_Updated/rodos/api/subscriber.h **** * @brief Subscriber to receive messages
  65:/home/rodos/Discovery_WorkSpace_Updated/rodos/api/subscriber.h **** *
  66:/home/rodos/Discovery_WorkSpace_Updated/rodos/api/subscriber.h **** *  The middleware communication is based on the publisher/subscriber protocol.
  67:/home/rodos/Discovery_WorkSpace_Updated/rodos/api/subscriber.h **** *  Publishers make messages public under a given topic.
  68:/home/rodos/Discovery_WorkSpace_Updated/rodos/api/subscriber.h **** *  Subscribers to a given topic get all messages which are published
  69:/home/rodos/Discovery_WorkSpace_Updated/rodos/api/subscriber.h **** *  under the given topic.
  70:/home/rodos/Discovery_WorkSpace_Updated/rodos/api/subscriber.h **** *  To establish a transfer path, both:
  71:/home/rodos/Discovery_WorkSpace_Updated/rodos/api/subscriber.h **** *  publisher and subscriber have to share the same topic.
  72:/home/rodos/Discovery_WorkSpace_Updated/rodos/api/subscriber.h **** *
  73:/home/rodos/Discovery_WorkSpace_Updated/rodos/api/subscriber.h **** * Each subscriber has a reference to the associated topic and a putter
  74:/home/rodos/Discovery_WorkSpace_Updated/rodos/api/subscriber.h **** * to store messages.
  75:/home/rodos/Discovery_WorkSpace_Updated/rodos/api/subscriber.h **** * All subscribers are registered in a list.
  76:/home/rodos/Discovery_WorkSpace_Updated/rodos/api/subscriber.h **** * Each time a messages is published the list of all subscriber will be search and
  77:/home/rodos/Discovery_WorkSpace_Updated/rodos/api/subscriber.h **** * for each subscriber where the topic matches the associated putter will be called
  78:/home/rodos/Discovery_WorkSpace_Updated/rodos/api/subscriber.h **** * to store a copy of the published message.
  79:/home/rodos/Discovery_WorkSpace_Updated/rodos/api/subscriber.h **** */
  80:/home/rodos/Discovery_WorkSpace_Updated/rodos/api/subscriber.h **** 
  81:/home/rodos/Discovery_WorkSpace_Updated/rodos/api/subscriber.h **** class NetMsgInfo {
  82:/home/rodos/Discovery_WorkSpace_Updated/rodos/api/subscriber.h **** public:
  83:/home/rodos/Discovery_WorkSpace_Updated/rodos/api/subscriber.h ****     int32_t senderNode;	///< Node ID of sending instance of RODOS
  84:/home/rodos/Discovery_WorkSpace_Updated/rodos/api/subscriber.h ****     int64_t sentTime;   ///< Time in localTime units 
  85:/home/rodos/Discovery_WorkSpace_Updated/rodos/api/subscriber.h ****     uint32_t senderThreadId;
  86:/home/rodos/Discovery_WorkSpace_Updated/rodos/api/subscriber.h ****     uint32_t linkId;
  87:/home/rodos/Discovery_WorkSpace_Updated/rodos/api/subscriber.h **** };
  88:/home/rodos/Discovery_WorkSpace_Updated/rodos/api/subscriber.h **** 
  89:/home/rodos/Discovery_WorkSpace_Updated/rodos/api/subscriber.h **** 
  90:/home/rodos/Discovery_WorkSpace_Updated/rodos/api/subscriber.h **** class Subscriber : public ListElement {
  91:/home/rodos/Discovery_WorkSpace_Updated/rodos/api/subscriber.h **** 
  92:/home/rodos/Discovery_WorkSpace_Updated/rodos/api/subscriber.h ****     friend class TopicInterface;
  93:/home/rodos/Discovery_WorkSpace_Updated/rodos/api/subscriber.h ****     friend class TopicReporter;
  94:/home/rodos/Discovery_WorkSpace_Updated/rodos/api/subscriber.h ****     friend void initSystem();
  95:/home/rodos/Discovery_WorkSpace_Updated/rodos/api/subscriber.h **** 
  96:/home/rodos/Discovery_WorkSpace_Updated/rodos/api/subscriber.h **** public:
  97:/home/rodos/Discovery_WorkSpace_Updated/rodos/api/subscriber.h ****     /// Reference to a topic to which the subscriber listens.
  98:/home/rodos/Discovery_WorkSpace_Updated/rodos/api/subscriber.h ****     TopicInterface& topicInterface;
  99:/home/rodos/Discovery_WorkSpace_Updated/rodos/api/subscriber.h **** 
 100:/home/rodos/Discovery_WorkSpace_Updated/rodos/api/subscriber.h ****     /// Reference to the associated handler of a message received.
 101:/home/rodos/Discovery_WorkSpace_Updated/rodos/api/subscriber.h ****     Putter* receiver;
 102:/home/rodos/Discovery_WorkSpace_Updated/rodos/api/subscriber.h **** 
 103:/home/rodos/Discovery_WorkSpace_Updated/rodos/api/subscriber.h **** protected:
 104:/home/rodos/Discovery_WorkSpace_Updated/rodos/api/subscriber.h ****     /// Flag to indicate if the subscriber broadcasts a message internally or externally
 105:/home/rodos/Discovery_WorkSpace_Updated/rodos/api/subscriber.h ****     bool isAGateway;
 106:/home/rodos/Discovery_WorkSpace_Updated/rodos/api/subscriber.h ****     /// Flag to activate or deactivate the subscriber
 107:/home/rodos/Discovery_WorkSpace_Updated/rodos/api/subscriber.h ****     bool isEnabled;
 108:/home/rodos/Discovery_WorkSpace_Updated/rodos/api/subscriber.h ****     /// List of all subscribers in the system
 109:/home/rodos/Discovery_WorkSpace_Updated/rodos/api/subscriber.h ****     static List subscriberList;
 110:/home/rodos/Discovery_WorkSpace_Updated/rodos/api/subscriber.h **** 
 111:/home/rodos/Discovery_WorkSpace_Updated/rodos/api/subscriber.h ****     Semaphore protector;
 112:/home/rodos/Discovery_WorkSpace_Updated/rodos/api/subscriber.h ****     /// DEPRECATED! DO not use anymore!
 113:/home/rodos/Discovery_WorkSpace_Updated/rodos/api/subscriber.h ****     virtual long put(const long topicId, const long len, const void* data, long linkId);
 114:/home/rodos/Discovery_WorkSpace_Updated/rodos/api/subscriber.h ****     /// Default function: forward the message and invoke the receiver (putter). It locks the semaph
 115:/home/rodos/Discovery_WorkSpace_Updated/rodos/api/subscriber.h ****     virtual long put(const long topicId, const long len, const void* data, const NetMsgInfo& netMsg
 116:/home/rodos/Discovery_WorkSpace_Updated/rodos/api/subscriber.h **** 
 117:/home/rodos/Discovery_WorkSpace_Updated/rodos/api/subscriber.h ****     /// do not locks any semaphore. Do not call any thread funcion
 118:/home/rodos/Discovery_WorkSpace_Updated/rodos/api/subscriber.h ****     /// default function resumes the associated thread (if defiend) if it is waiting for it
 119:/home/rodos/Discovery_WorkSpace_Updated/rodos/api/subscriber.h ****     virtual void putFromInterrupt(const long topicId, const void* any, int len = 0);
 120:/home/rodos/Discovery_WorkSpace_Updated/rodos/api/subscriber.h **** 
 121:/home/rodos/Discovery_WorkSpace_Updated/rodos/api/subscriber.h **** 
 122:/home/rodos/Discovery_WorkSpace_Updated/rodos/api/subscriber.h **** public:
 123:/home/rodos/Discovery_WorkSpace_Updated/rodos/api/subscriber.h **** 
 124:/home/rodos/Discovery_WorkSpace_Updated/rodos/api/subscriber.h ****     /** At creation time a connection to the corresponding topic
 125:/home/rodos/Discovery_WorkSpace_Updated/rodos/api/subscriber.h ****      * and putter (receiver) has to be done.
 126:/home/rodos/Discovery_WorkSpace_Updated/rodos/api/subscriber.h ****      * Subscriber my be "Normal" message receiver or may be Gateways.
 127:/home/rodos/Discovery_WorkSpace_Updated/rodos/api/subscriber.h ****      * Gatewayes are interfaces to other memory spaces and nodes, e.g.
 128:/home/rodos/Discovery_WorkSpace_Updated/rodos/api/subscriber.h ****      * going throug a network. Gateways just forward messages to other nodes.
 129:/home/rodos/Discovery_WorkSpace_Updated/rodos/api/subscriber.h ****      *
 130:/home/rodos/Discovery_WorkSpace_Updated/rodos/api/subscriber.h ****      * The parameter name is only used for debug purposes, to see which subscriber is
 131:/home/rodos/Discovery_WorkSpace_Updated/rodos/api/subscriber.h ****      * attached to which topic. Using names you can recognise present subscribers in listings.
 132:/home/rodos/Discovery_WorkSpace_Updated/rodos/api/subscriber.h ****      *
 133:/home/rodos/Discovery_WorkSpace_Updated/rodos/api/subscriber.h ****      * @param topic reference to the topic to which the owner will be subscribed
 134:/home/rodos/Discovery_WorkSpace_Updated/rodos/api/subscriber.h ****      * @param putter reference to a putter receiving messages from the topic subscribed
 135:/home/rodos/Discovery_WorkSpace_Updated/rodos/api/subscriber.h ****      * @param name name is used only for debug purposes, sing it one can recognise Threads.
 136:/home/rodos/Discovery_WorkSpace_Updated/rodos/api/subscriber.h ****      * @param isAGatewayParam : gateways get from all topics and they decide to forward or not
 137:/home/rodos/Discovery_WorkSpace_Updated/rodos/api/subscriber.h ****      */
 138:/home/rodos/Discovery_WorkSpace_Updated/rodos/api/subscriber.h ****     Subscriber(TopicInterface &topic, Putter& receiver, const char* name = "anonymSubscriber", bool
 139:/home/rodos/Discovery_WorkSpace_Updated/rodos/api/subscriber.h **** 
 140:/home/rodos/Discovery_WorkSpace_Updated/rodos/api/subscriber.h ****     /**
 141:/home/rodos/Discovery_WorkSpace_Updated/rodos/api/subscriber.h ****       * Simple subscriber has no ssociated receiver (nor thread nor putter), they just (have to)
 142:/home/rodos/Discovery_WorkSpace_Updated/rodos/api/subscriber.h ****       * redifine the put method
 143:/home/rodos/Discovery_WorkSpace_Updated/rodos/api/subscriber.h ****       */
 144:/home/rodos/Discovery_WorkSpace_Updated/rodos/api/subscriber.h ****     Subscriber(TopicInterface &topic, const char* name = "anonymThreadSubscriber");
 145:/home/rodos/Discovery_WorkSpace_Updated/rodos/api/subscriber.h **** 
 146:/home/rodos/Discovery_WorkSpace_Updated/rodos/api/subscriber.h ****     /// Destructor, should not be called in nominal operation.
 147:/home/rodos/Discovery_WorkSpace_Updated/rodos/api/subscriber.h ****     virtual ~Subscriber() { ERROR("Subscriber deleted"); }
 167              		.loc 3 147 0
 168              		.cfi_startproc
 169              		@ args = 0, pretend = 0, frame = 8
 170              		@ frame_needed = 1, uses_anonymous_args = 0
 171 0000 80B5     		push	{r7, lr}
 172              	.LCFI9:
 173              		.cfi_def_cfa_offset 8
 174              		.cfi_offset 7, -8
 175              		.cfi_offset 14, -4
 176 0002 82B0     		sub	sp, sp, #8
 177              	.LCFI10:
 178              		.cfi_def_cfa_offset 16
 179 0004 00AF     		add	r7, sp, #0
 180              	.LCFI11:
 181              		.cfi_def_cfa_register 7
 182 0006 7860     		str	r0, [r7, #4]
 183              	.LBB3:
 184              		.loc 3 147 0
 185 0008 7B68     		ldr	r3, [r7, #4]
 186 000a 0E4A     		ldr	r2, .L15
 187 000c 1A60     		str	r2, [r3, #0]
 188 000e 40F20000 		movw	r0, #:lower16:.LC4
 189 0012 C0F20000 		movt	r0, #:upper16:.LC4
 190 0016 FFF7FEFF 		bl	_ZN5RODOS5ERROREPKc
 191 001a 7B68     		ldr	r3, [r7, #4]
 192 001c 03F10403 		add	r3, r3, #4
 193 0020 1846     		mov	r0, r3
 194 0022 FFF7FEFF 		bl	_ZN5RODOS11ListElementD2Ev
 195              	.LBE3:
 196 0026 4FF00003 		mov	r3, #0
 197 002a 03F00103 		and	r3, r3, #1
 198 002e 002B     		cmp	r3, #0
 199 0030 02D0     		beq	.L13
 200              		.loc 3 147 0 is_stmt 0 discriminator 2
 201 0032 7868     		ldr	r0, [r7, #4]
 202 0034 FFF7FEFF 		bl	_ZdlPv
 203              	.L13:
 204              		.loc 3 147 0 discriminator 3
 205 0038 7B68     		ldr	r3, [r7, #4]
 206 003a 1846     		mov	r0, r3
 207 003c 07F10807 		add	r7, r7, #8
 208 0040 BD46     		mov	sp, r7
 209 0042 80BD     		pop	{r7, pc}
 210              	.L16:
 211              		.align	2
 212              	.L15:
 213 0044 08000000 		.word	_ZTVN5RODOS10SubscriberE+8
 214              		.cfi_endproc
 215              	.LFE69:
 217              		.weak	_ZN5RODOS10SubscriberD1Ev
 218              		.thumb_set _ZN5RODOS10SubscriberD1Ev,_ZN5RODOS10SubscriberD2Ev
 219              		.section	.text._ZN5RODOS10SubscriberD0Ev,"axG",%progbits,_ZN5RODOS10SubscriberD0Ev,comdat
 220              		.align	2
 221              		.weak	_ZN5RODOS10SubscriberD0Ev
 222              		.thumb
 223              		.thumb_func
 225              	_ZN5RODOS10SubscriberD0Ev:
 226              	.LFB71:
 227              		.loc 3 147 0 is_stmt 1
 228              		.cfi_startproc
 229              		@ args = 0, pretend = 0, frame = 8
 230              		@ frame_needed = 1, uses_anonymous_args = 0
 231 0000 80B5     		push	{r7, lr}
 232              	.LCFI12:
 233              		.cfi_def_cfa_offset 8
 234              		.cfi_offset 7, -8
 235              		.cfi_offset 14, -4
 236 0002 82B0     		sub	sp, sp, #8
 237              	.LCFI13:
 238              		.cfi_def_cfa_offset 16
 239 0004 00AF     		add	r7, sp, #0
 240              	.LCFI14:
 241              		.cfi_def_cfa_register 7
 242 0006 7860     		str	r0, [r7, #4]
 243              		.loc 3 147 0
 244 0008 7868     		ldr	r0, [r7, #4]
 245 000a FFF7FEFF 		bl	_ZN5RODOS10SubscriberD1Ev
 246 000e 7868     		ldr	r0, [r7, #4]
 247 0010 FFF7FEFF 		bl	_ZdlPv
 248 0014 7B68     		ldr	r3, [r7, #4]
 249 0016 1846     		mov	r0, r3
 250 0018 07F10807 		add	r7, r7, #8
 251 001c BD46     		mov	sp, r7
 252 001e 80BD     		pop	{r7, pc}
 253              		.cfi_endproc
 254              	.LFE71:
 256              		.section	.text._ZN5RODOS6PutterD2Ev,"axG",%progbits,_ZN5RODOS6PutterD5Ev,comdat
 257              		.align	2
 258              		.weak	_ZN5RODOS6PutterD2Ev
 259              		.thumb
 260              		.thumb_func
 262              	_ZN5RODOS6PutterD2Ev:
 263              	.LFB78:
 264              		.file 4 "/home/rodos/Discovery_WorkSpace_Updated/rodos/api/putter.h"
   1:/home/rodos/Discovery_WorkSpace_Updated/rodos/api/putter.h **** 
   2:/home/rodos/Discovery_WorkSpace_Updated/rodos/api/putter.h **** 
   3:/home/rodos/Discovery_WorkSpace_Updated/rodos/api/putter.h **** /*********************************************************** Copyright
   4:/home/rodos/Discovery_WorkSpace_Updated/rodos/api/putter.h ****  **
   5:/home/rodos/Discovery_WorkSpace_Updated/rodos/api/putter.h ****  ** Copyright (c) 2008, German Aerospace Center (DLR)
   6:/home/rodos/Discovery_WorkSpace_Updated/rodos/api/putter.h ****  ** All rights reserved.
   7:/home/rodos/Discovery_WorkSpace_Updated/rodos/api/putter.h ****  **
   8:/home/rodos/Discovery_WorkSpace_Updated/rodos/api/putter.h ****  ** Redistribution and use in source and binary forms, with or without
   9:/home/rodos/Discovery_WorkSpace_Updated/rodos/api/putter.h ****  ** modification, are permitted provided that the following conditions are
  10:/home/rodos/Discovery_WorkSpace_Updated/rodos/api/putter.h ****  ** met:
  11:/home/rodos/Discovery_WorkSpace_Updated/rodos/api/putter.h ****  **
  12:/home/rodos/Discovery_WorkSpace_Updated/rodos/api/putter.h ****  ** 1 Redistributions of source code must retain the above copyright
  13:/home/rodos/Discovery_WorkSpace_Updated/rodos/api/putter.h ****  **   notice, this list of conditions and the following disclaimer.
  14:/home/rodos/Discovery_WorkSpace_Updated/rodos/api/putter.h ****  **
  15:/home/rodos/Discovery_WorkSpace_Updated/rodos/api/putter.h ****  ** 2 Redistributions in binary form must reproduce the above copyright
  16:/home/rodos/Discovery_WorkSpace_Updated/rodos/api/putter.h ****  **   notice, this list of conditions and the following disclaimer in the
  17:/home/rodos/Discovery_WorkSpace_Updated/rodos/api/putter.h ****  **   documentation and/or other materials provided with the
  18:/home/rodos/Discovery_WorkSpace_Updated/rodos/api/putter.h ****  **   distribution.
  19:/home/rodos/Discovery_WorkSpace_Updated/rodos/api/putter.h ****  **
  20:/home/rodos/Discovery_WorkSpace_Updated/rodos/api/putter.h ****  ** 3 Neither the name of the German Aerospace Center nor the names of
  21:/home/rodos/Discovery_WorkSpace_Updated/rodos/api/putter.h ****  **   its contributors may be used to endorse or promote products derived
  22:/home/rodos/Discovery_WorkSpace_Updated/rodos/api/putter.h ****  **   from this software without specific prior written permission.
  23:/home/rodos/Discovery_WorkSpace_Updated/rodos/api/putter.h ****  **
  24:/home/rodos/Discovery_WorkSpace_Updated/rodos/api/putter.h ****  ** THIS SOFTWARE IS PROVIDED BY THE COPYRIGHT HOLDERS AND CONTRIBUTORS
  25:/home/rodos/Discovery_WorkSpace_Updated/rodos/api/putter.h ****  ** "AS IS" AND ANY EXPRESS OR IMPLIED WARRANTIES, INCLUDING, BUT NOT
  26:/home/rodos/Discovery_WorkSpace_Updated/rodos/api/putter.h ****  ** LIMITED TO, THE IMPLIED WARRANTIES OF MERCHANTABILITY AND FITNESS FOR
  27:/home/rodos/Discovery_WorkSpace_Updated/rodos/api/putter.h ****  ** A PARTICULAR PURPOSE ARE DISCLAIMED. IN NO EVENT SHALL THE COPYRIGHT
  28:/home/rodos/Discovery_WorkSpace_Updated/rodos/api/putter.h ****  ** OWNER OR CONTRIBUTORS BE LIABLE FOR ANY DIRECT, INDIRECT, INCIDENTAL,
  29:/home/rodos/Discovery_WorkSpace_Updated/rodos/api/putter.h ****  ** SPECIAL, EXEMPLARY, OR CONSEQUENTIAL DAMAGES (INCLUDING, BUT NOT
  30:/home/rodos/Discovery_WorkSpace_Updated/rodos/api/putter.h ****  ** LIMITED TO, PROCUREMENT OF SUBSTITUTE GOODS OR SERVICES; LOSS OF USE,
  31:/home/rodos/Discovery_WorkSpace_Updated/rodos/api/putter.h ****  ** DATA, OR PROFITS; OR BUSINESS INTERRUPTION) HOWEVER CAUSED AND ON ANY
  32:/home/rodos/Discovery_WorkSpace_Updated/rodos/api/putter.h ****  ** THEORY OF LIABILITY, WHETHER IN CONTRACT, STRICT LIABILITY, OR TORT
  33:/home/rodos/Discovery_WorkSpace_Updated/rodos/api/putter.h ****  ** (INCLUDING NEGLIGENCE OR OTHERWISE) ARISING IN ANY WAY OUT OF THE USE
  34:/home/rodos/Discovery_WorkSpace_Updated/rodos/api/putter.h ****  ** OF THIS SOFTWARE, EVEN IF ADVISED OF THE POSSIBILITY OF SUCH DAMAGE.
  35:/home/rodos/Discovery_WorkSpace_Updated/rodos/api/putter.h ****  **
  36:/home/rodos/Discovery_WorkSpace_Updated/rodos/api/putter.h ****  ****************************************************************************/
  37:/home/rodos/Discovery_WorkSpace_Updated/rodos/api/putter.h **** 
  38:/home/rodos/Discovery_WorkSpace_Updated/rodos/api/putter.h **** 
  39:/home/rodos/Discovery_WorkSpace_Updated/rodos/api/putter.h **** /**
  40:/home/rodos/Discovery_WorkSpace_Updated/rodos/api/putter.h ****  * @file putter.h
  41:/home/rodos/Discovery_WorkSpace_Updated/rodos/api/putter.h ****  * @date 2008/04/28 7:20
  42:/home/rodos/Discovery_WorkSpace_Updated/rodos/api/putter.h ****  * @author Sergio Montenegro, Lutz Dittrich
  43:/home/rodos/Discovery_WorkSpace_Updated/rodos/api/putter.h ****  *
  44:/home/rodos/Discovery_WorkSpace_Updated/rodos/api/putter.h ****  * Copyright 2008 DLR
  45:/home/rodos/Discovery_WorkSpace_Updated/rodos/api/putter.h ****  *
  46:/home/rodos/Discovery_WorkSpace_Updated/rodos/api/putter.h ****  *
  47:/home/rodos/Discovery_WorkSpace_Updated/rodos/api/putter.h ****  * @brief Superclass to elements which can accept/store data (header)
  48:/home/rodos/Discovery_WorkSpace_Updated/rodos/api/putter.h ****  *
  49:/home/rodos/Discovery_WorkSpace_Updated/rodos/api/putter.h ****  */
  50:/home/rodos/Discovery_WorkSpace_Updated/rodos/api/putter.h **** 
  51:/home/rodos/Discovery_WorkSpace_Updated/rodos/api/putter.h **** #pragma once
  52:/home/rodos/Discovery_WorkSpace_Updated/rodos/api/putter.h **** 
  53:/home/rodos/Discovery_WorkSpace_Updated/rodos/api/putter.h **** #include "params.h"
  54:/home/rodos/Discovery_WorkSpace_Updated/rodos/api/putter.h **** #include "subscriber.h"
  55:/home/rodos/Discovery_WorkSpace_Updated/rodos/api/putter.h **** 
  56:/home/rodos/Discovery_WorkSpace_Updated/rodos/api/putter.h **** 
  57:/home/rodos/Discovery_WorkSpace_Updated/rodos/api/putter.h **** #ifndef NO_RODOS_NAMESPACE
  58:/home/rodos/Discovery_WorkSpace_Updated/rodos/api/putter.h **** namespace RODOS {
  59:/home/rodos/Discovery_WorkSpace_Updated/rodos/api/putter.h **** #endif
  60:/home/rodos/Discovery_WorkSpace_Updated/rodos/api/putter.h **** 
  61:/home/rodos/Discovery_WorkSpace_Updated/rodos/api/putter.h **** /**
  62:/home/rodos/Discovery_WorkSpace_Updated/rodos/api/putter.h ****  * @class Putter
  63:/home/rodos/Discovery_WorkSpace_Updated/rodos/api/putter.h ****  * @brief Virtual superclass for classes which implement a put function
  64:/home/rodos/Discovery_WorkSpace_Updated/rodos/api/putter.h ****  *
  65:/home/rodos/Discovery_WorkSpace_Updated/rodos/api/putter.h ****  * Virtual superclass for classes which implement a put function
  66:/home/rodos/Discovery_WorkSpace_Updated/rodos/api/putter.h ****  * to store data, in order to have a generic interface to data storage,
  67:/home/rodos/Discovery_WorkSpace_Updated/rodos/api/putter.h ****  * eg. Fifo, CommBuffer, SyncFifo.
  68:/home/rodos/Discovery_WorkSpace_Updated/rodos/api/putter.h ****  */
  69:/home/rodos/Discovery_WorkSpace_Updated/rodos/api/putter.h **** class Putter {
  70:/home/rodos/Discovery_WorkSpace_Updated/rodos/api/putter.h **** public:
  71:/home/rodos/Discovery_WorkSpace_Updated/rodos/api/putter.h **** 
  72:/home/rodos/Discovery_WorkSpace_Updated/rodos/api/putter.h ****     virtual ~Putter() {};
 265              		.loc 4 72 0
 266              		.cfi_startproc
 267              		@ args = 0, pretend = 0, frame = 8
 268              		@ frame_needed = 1, uses_anonymous_args = 0
 269 0000 80B5     		push	{r7, lr}
 270              	.LCFI15:
 271              		.cfi_def_cfa_offset 8
 272              		.cfi_offset 7, -8
 273              		.cfi_offset 14, -4
 274 0002 82B0     		sub	sp, sp, #8
 275              	.LCFI16:
 276              		.cfi_def_cfa_offset 16
 277 0004 00AF     		add	r7, sp, #0
 278              	.LCFI17:
 279              		.cfi_def_cfa_register 7
 280 0006 7860     		str	r0, [r7, #4]
 281              	.LBB4:
 282              		.loc 4 72 0
 283 0008 7B68     		ldr	r3, [r7, #4]
 284 000a 084A     		ldr	r2, .L24
 285 000c 1A60     		str	r2, [r3, #0]
 286              	.LBE4:
 287 000e 4FF00003 		mov	r3, #0
 288 0012 03F00103 		and	r3, r3, #1
 289 0016 002B     		cmp	r3, #0
 290 0018 02D0     		beq	.L22
 291              		.loc 4 72 0 is_stmt 0 discriminator 1
 292 001a 7868     		ldr	r0, [r7, #4]
 293 001c FFF7FEFF 		bl	_ZdlPv
 294              	.L22:
 295              		.loc 4 72 0 discriminator 2
 296 0020 7B68     		ldr	r3, [r7, #4]
 297 0022 1846     		mov	r0, r3
 298 0024 07F10807 		add	r7, r7, #8
 299 0028 BD46     		mov	sp, r7
 300 002a 80BD     		pop	{r7, pc}
 301              	.L25:
 302              		.align	2
 303              	.L24:
 304 002c 08000000 		.word	_ZTVN5RODOS6PutterE+8
 305              		.cfi_endproc
 306              	.LFE78:
 308              		.weak	_ZN5RODOS6PutterD1Ev
 309              		.thumb_set _ZN5RODOS6PutterD1Ev,_ZN5RODOS6PutterD2Ev
 310              		.section	.text._ZN5RODOS6PutterD0Ev,"axG",%progbits,_ZN5RODOS6PutterD0Ev,comdat
 311              		.align	2
 312              		.weak	_ZN5RODOS6PutterD0Ev
 313              		.thumb
 314              		.thumb_func
 316              	_ZN5RODOS6PutterD0Ev:
 317              	.LFB80:
 318              		.loc 4 72 0 is_stmt 1
 319              		.cfi_startproc
 320              		@ args = 0, pretend = 0, frame = 8
 321              		@ frame_needed = 1, uses_anonymous_args = 0
 322 0000 80B5     		push	{r7, lr}
 323              	.LCFI18:
 324              		.cfi_def_cfa_offset 8
 325              		.cfi_offset 7, -8
 326              		.cfi_offset 14, -4
 327 0002 82B0     		sub	sp, sp, #8
 328              	.LCFI19:
 329              		.cfi_def_cfa_offset 16
 330 0004 00AF     		add	r7, sp, #0
 331              	.LCFI20:
 332              		.cfi_def_cfa_register 7
 333 0006 7860     		str	r0, [r7, #4]
 334              		.loc 4 72 0
 335 0008 7868     		ldr	r0, [r7, #4]
 336 000a FFF7FEFF 		bl	_ZN5RODOS6PutterD1Ev
 337 000e 7868     		ldr	r0, [r7, #4]
 338 0010 FFF7FEFF 		bl	_ZdlPv
 339 0014 7B68     		ldr	r3, [r7, #4]
 340 0016 1846     		mov	r0, r3
 341 0018 07F10807 		add	r7, r7, #8
 342 001c BD46     		mov	sp, r7
 343 001e 80BD     		pop	{r7, pc}
 344              		.cfi_endproc
 345              	.LFE80:
 347              		.section	.rodata
 348 0023 00       		.align	2
 349              	.LC5:
 350 0024 49662079 		.ascii	"If you see this message, You are overriding a depre"
 350      6F752073 
 350      65652074 
 350      68697320 
 350      6D657373 
 351 0057 63617465 		.ascii	"cated old put function from Putter. please override"
 351      64206F6C 
 351      64207075 
 351      74206675 
 351      6E637469 
 352 008a 206F6E6C 		.ascii	" only the new (this!) putGeneric\000"
 352      79207468 
 352      65206E65 
 352      77202874 
 352      68697321 
 353              		.section	.text._ZN5RODOS6Putter10putGenericEljPKvRKNS_10NetMsgInfoE,"axG",%progbits,_ZN5RODOS6Putt
 354              		.align	2
 355              		.weak	_ZN5RODOS6Putter10putGenericEljPKvRKNS_10NetMsgInfoE
 356              		.thumb
 357              		.thumb_func
 359              	_ZN5RODOS6Putter10putGenericEljPKvRKNS_10NetMsgInfoE:
 360              	.LFB81:
  73:/home/rodos/Discovery_WorkSpace_Updated/rodos/api/putter.h **** 
  74:/home/rodos/Discovery_WorkSpace_Updated/rodos/api/putter.h ****     virtual bool putGeneric(const long topicId, const unsigned int len, const void* msg, const NetM
 361              		.loc 4 74 0
 362              		.cfi_startproc
 363              		@ args = 4, pretend = 0, frame = 16
 364              		@ frame_needed = 1, uses_anonymous_args = 0
 365 0000 80B5     		push	{r7, lr}
 366              	.LCFI21:
 367              		.cfi_def_cfa_offset 8
 368              		.cfi_offset 7, -8
 369              		.cfi_offset 14, -4
 370 0002 84B0     		sub	sp, sp, #16
 371              	.LCFI22:
 372              		.cfi_def_cfa_offset 24
 373 0004 00AF     		add	r7, sp, #0
 374              	.LCFI23:
 375              		.cfi_def_cfa_register 7
 376 0006 F860     		str	r0, [r7, #12]
 377 0008 B960     		str	r1, [r7, #8]
 378 000a 7A60     		str	r2, [r7, #4]
 379 000c 3B60     		str	r3, [r7, #0]
  75:/home/rodos/Discovery_WorkSpace_Updated/rodos/api/putter.h ****        ERROR("If you see this message, You are overriding a deprecated old put function from Putter
 380              		.loc 4 75 0
 381 000e 40F20000 		movw	r0, #:lower16:.LC5
 382 0012 C0F20000 		movt	r0, #:upper16:.LC5
 383 0016 FFF7FEFF 		bl	_ZN5RODOS5ERROREPKc
  76:/home/rodos/Discovery_WorkSpace_Updated/rodos/api/putter.h ****        return false;
 384              		.loc 4 76 0
 385 001a 4FF00003 		mov	r3, #0
  77:/home/rodos/Discovery_WorkSpace_Updated/rodos/api/putter.h ****     }
 386              		.loc 4 77 0
 387 001e 1846     		mov	r0, r3
 388 0020 07F11007 		add	r7, r7, #16
 389 0024 BD46     		mov	sp, r7
 390 0026 80BD     		pop	{r7, pc}
 391              		.cfi_endproc
 392              	.LFE81:
 394              		.global	button
 395              		.section	.bss.button,"aw",%nobits
 396              		.align	2
 399              	button:
 400 0000 00000000 		.space	28
 400      00000000 
 400      00000000 
 400      00000000 
 400      00000000 
 401              		.global	LED
 402              		.section	.bss.LED,"aw",%nobits
 403              		.align	2
 406              	LED:
 407 0000 00000000 		.space	112
 407      00000000 
 407      00000000 
 407      00000000 
 407      00000000 
 408              		.global	BT2UART
 409              		.section	.bss.BT2UART,"aw",%nobits
 410              		.align	2
 413              	BT2UART:
 414 0000 00000000 		.space	28
 414      00000000 
 414      00000000 
 414      00000000 
 414      00000000 
 415              		.global	IMU
 416              		.section	.bss.IMU,"aw",%nobits
 417              		.align	2
 420              	IMU:
 421 0000 00000000 		.space	28
 421      00000000 
 421      00000000 
 421      00000000 
 421      00000000 
 422              		.global	TopicTelecommand
 423              		.section	.bss.TopicTelecommand,"aw",%nobits
 424              		.align	2
 427              	TopicTelecommand:
 428 0000 00000000 		.space	36
 428      00000000 
 428      00000000 
 428      00000000 
 428      00000000 
 429              		.global	TopicTelemetry
 430              		.section	.bss.TopicTelemetry,"aw",%nobits
 431              		.align	2
 434              	TopicTelemetry:
 435 0000 00000000 		.space	36
 435      00000000 
 435      00000000 
 435      00000000 
 435      00000000 
 436              		.global	cbAcc
 437              		.section	.bss.cbAcc,"aw",%nobits
 438              		.align	3
 441              	cbAcc:
 442 0000 00000000 		.space	72
 442      00000000 
 442      00000000 
 442      00000000 
 442      00000000 
 443              		.global	cbMag
 444              		.section	.bss.cbMag,"aw",%nobits
 445              		.align	3
 448              	cbMag:
 449 0000 00000000 		.space	72
 449      00000000 
 449      00000000 
 449      00000000 
 449      00000000 
 450              		.global	cbGyr
 451              		.section	.bss.cbGyr,"aw",%nobits
 452              		.align	3
 455              	cbGyr:
 456 0000 00000000 		.space	72
 456      00000000 
 456      00000000 
 456      00000000 
 456      00000000 
 457              		.global	cbTemp
 458              		.section	.bss.cbTemp,"aw",%nobits
 459              		.align	3
 462              	cbTemp:
 463 0000 00000000 		.space	48
 463      00000000 
 463      00000000 
 463      00000000 
 463      00000000 
 464              		.section	.text._ZL9ToggleLEDRN5RODOS8HAL_GPIOEm,"ax",%progbits
 465              		.align	2
 466              		.thumb
 467              		.thumb_func
 469              	_ZL9ToggleLEDRN5RODOS8HAL_GPIOEm:
 470              	.LFB191:
 471              		.file 5 "../Task.cpp"
   1:../Task.cpp   **** /*
   2:../Task.cpp   ****  * TELEKOMMANDOS
   3:../Task.cpp   ****  * S Zahl 	: 	ndert Interval SignalProcessing-Thread
   4:../Task.cpp   ****  * T Zahl	: 	ndert Interval Telemetrie-Thread
   5:../Task.cpp   ****  * Q		: 	postet ALLE Telemetrie-Daten
   6:../Task.cpp   ****  * A		:	postet nur Accelerometer
   7:../Task.cpp   ****  * G		:	postet nur Gyroskop
   8:../Task.cpp   ****  * M		:	postet nur Magnetometer
   9:../Task.cpp   ****  * H		:	postet nur Temperatur
  10:../Task.cpp   ****  *
  11:../Task.cpp   ****  */
  12:../Task.cpp   **** 
  13:../Task.cpp   **** /// Standardbibliotheken
  14:../Task.cpp   **** #include <stdint.h>
  15:../Task.cpp   **** #include <stdio.h>
  16:../Task.cpp   **** #include <stdlib.h>
  17:../Task.cpp   **** #include <ctype.h>
  18:../Task.cpp   **** #include <math.h>
  19:../Task.cpp   **** //#include <string.h> // Vorsicht mit Includes von C++ Bibliotheken! Verursacht Fehler!
  20:../Task.cpp   **** 
  21:../Task.cpp   **** /// RODOS & Board
  22:../Task.cpp   **** #include "rodos.h"
  23:../Task.cpp   **** #include "hal_gpio.h"
  24:../Task.cpp   **** 
  25:../Task.cpp   **** /// Makros
  26:../Task.cpp   **** // Adresse fr IMU Sensoren:
  27:../Task.cpp   **** #define LSM9DS1_AG 0x6B // (0x6B) Accelerometer & Gyroscope
  28:../Task.cpp   **** #define LSM9DS1_M 0x1E // (0x1E) Magnetometer
  29:../Task.cpp   **** 
  30:../Task.cpp   **** // feste Initialsierungen fr Sensoren:
  31:../Task.cpp   **** #define init_CTRL_REG1_G_addr 0x10
  32:../Task.cpp   **** #define init_CTRL_REG1_G_val 0b10011000 // (0x98) ODR=238Hz, Cutoff=14Hz, Full Scale=2000
  33:../Task.cpp   **** #define init_CTRL_REG6_XL_addr 0x20
  34:../Task.cpp   **** #define init_CTRL_REG6_XL_val 0b10000011 // (0x83) Acceleration ODR=238Hz, Acceleration Full-scale=
  35:../Task.cpp   **** #define init_CTRL_REG1_M_addr 0x20
  36:../Task.cpp   **** #define init_CTRL_REG1_M_val 0b00011100 // (0x1C) ODR=80Hz
  37:../Task.cpp   **** #define init_CTRL_REG2_M_addr 0x21
  38:../Task.cpp   **** #define init_CTRL_REG2_M_val 0b00000000 // (0x00) Magnetic Full-scale=+-4gauss
  39:../Task.cpp   **** #define init_CTRL_REG3_M_addr 0x22
  40:../Task.cpp   **** #define init_CTRL_REG3_M_val 0b00000000 // (0x00) Continuous Conversion Mode
  41:../Task.cpp   **** 
  42:../Task.cpp   **** // Gyroscope
  43:../Task.cpp   **** #define ORIENT_CFG_G 0x13 // Angular rate sensor sign and orientation register
  44:../Task.cpp   **** #define OUT_X_G 0x18 // + 0x19 !
  45:../Task.cpp   **** #define OUT_Y_G 0x1A // + 0x1B !
  46:../Task.cpp   **** #define OUT_Z_G 0x1C // + 0x1D !
  47:../Task.cpp   **** 
  48:../Task.cpp   **** // Accelerometer
  49:../Task.cpp   **** #define OUT_X_XL 0x28 // + 0x29 !
  50:../Task.cpp   **** #define OUT_Y_XL 0x2A // + 0x2B !
  51:../Task.cpp   **** #define OUT_Z_XL 0x2C // + 0x2D !
  52:../Task.cpp   **** 
  53:../Task.cpp   **** // Magnetometer
  54:../Task.cpp   **** #define OUT_X_L_M 0x28
  55:../Task.cpp   **** #define OUT_Y_L_M 0x2A
  56:../Task.cpp   **** #define OUT_Z_L_M 0x2C
  57:../Task.cpp   **** 
  58:../Task.cpp   **** // Temperature
  59:../Task.cpp   **** #define OUT_TEMP_L 0x15
  60:../Task.cpp   **** 
  61:../Task.cpp   **** /// Strukturen
  62:../Task.cpp   **** // Uart -> Interpreter/StateMachine
  63:../Task.cpp   **** struct Telecommand {
  64:../Task.cpp   **** 	char id;
  65:../Task.cpp   **** 	float data;
  66:../Task.cpp   **** };
  67:../Task.cpp   **** 
  68:../Task.cpp   **** // Interpreter/StateMachine -> Threads
  69:../Task.cpp   **** struct Command {
  70:../Task.cpp   **** 	char id;
  71:../Task.cpp   **** 	float value;
  72:../Task.cpp   **** };
  73:../Task.cpp   **** 
  74:../Task.cpp   **** struct Data {
  75:../Task.cpp   **** 	float x;
  76:../Task.cpp   **** 	float y;
  77:../Task.cpp   **** 	float z;
  78:../Task.cpp   **** };
  79:../Task.cpp   **** 
  80:../Task.cpp   **** 
  81:../Task.cpp   **** /*
  82:../Task.cpp   ****  enum config_axes {
  83:../Task.cpp   ****  X, Y, Z
  84:../Task.cpp   ****  } config; // wird verwendet um IMU zu initialisieren
  85:../Task.cpp   ****  */
  86:../Task.cpp   **** 
  87:../Task.cpp   **** /// Globale Variablen
  88:../Task.cpp   **** /// Hardware
  89:../Task.cpp   **** HAL_GPIO button(GPIO_000); // blauer Button
  90:../Task.cpp   **** //	LEDs			grn	 orange		rot		   blau
  91:../Task.cpp   **** HAL_GPIO LED[4] = { GPIO_060, GPIO_061, GPIO_062, GPIO_063 };
  92:../Task.cpp   **** 
  93:../Task.cpp   **** /*
  94:../Task.cpp   ****  * grn = SignalProcessing
  95:../Task.cpp   ****  * orange = Telemetry
  96:../Task.cpp   ****  * rot = Telecommand
  97:../Task.cpp   ****  * blau = Kalibrierung
  98:../Task.cpp   ****  */
  99:../Task.cpp   **** 
 100:../Task.cpp   **** HAL_UART BT2UART(UART_IDX2); // UART (Tx=PD5, Rx=PD6)
 101:../Task.cpp   **** HAL_I2C IMU(I2C_IDX2); // I2C (SCL=PB10, SDA=PB11)
 102:../Task.cpp   **** 
 103:../Task.cpp   **** // LSB: Mit Integerwert von jeweiligem Sensor multiplizieren um realen Sensorwert zu erhalten
 104:../Task.cpp   **** const float LSB_G = 0.06103701895f;
 105:../Task.cpp   **** const float LSB_A = 6.1037018e-5f;
 106:../Task.cpp   **** const float LSB_M = 1.220740379e-4f;
 107:../Task.cpp   **** 
 108:../Task.cpp   **** /// Intertask
 109:../Task.cpp   **** // UART -> Interpreter/StateMachine
 110:../Task.cpp   **** Topic<Telecommand> TopicTelecommand(-1, "TopicTelecommand");
 111:../Task.cpp   **** 
 112:../Task.cpp   **** // Interpreter/StateMachine -> Counter-Thread
 113:../Task.cpp   **** Topic<Command> TopicTelemetry(-1, "TopicTelemetry");
 114:../Task.cpp   **** 
 115:../Task.cpp   **** CommBuffer<Data> cbAcc;
 116:../Task.cpp   **** CommBuffer<Data> cbMag;
 117:../Task.cpp   **** CommBuffer<Data> cbGyr;
 118:../Task.cpp   **** CommBuffer<float> cbTemp;
 119:../Task.cpp   **** 
 120:../Task.cpp   **** /// Statische Funktionen
 121:../Task.cpp   **** // Schaltet LED an und nach Wartezeit wieder aus
 122:../Task.cpp   **** static void ToggleLED(HAL_GPIO& led, uint32_t length_ms) {
 472              		.loc 5 122 0
 473              		.cfi_startproc
 474              		@ args = 0, pretend = 0, frame = 8
 475              		@ frame_needed = 1, uses_anonymous_args = 0
 476 0000 B0B5     		push	{r4, r5, r7, lr}
 477              	.LCFI24:
 478              		.cfi_def_cfa_offset 16
 479              		.cfi_offset 4, -16
 480              		.cfi_offset 5, -12
 481              		.cfi_offset 7, -8
 482              		.cfi_offset 14, -4
 483 0002 82B0     		sub	sp, sp, #8
 484              	.LCFI25:
 485              		.cfi_def_cfa_offset 24
 486 0004 00AF     		add	r7, sp, #0
 487              	.LCFI26:
 488              		.cfi_def_cfa_register 7
 489 0006 7860     		str	r0, [r7, #4]
 490 0008 3960     		str	r1, [r7, #0]
 123:../Task.cpp   **** 	led.setPins(1);
 491              		.loc 5 123 0
 492 000a 7868     		ldr	r0, [r7, #4]
 493 000c 4FF00101 		mov	r1, #1
 494 0010 FFF7FEFF 		bl	_ZN5RODOS8HAL_GPIO7setPinsEm
 124:../Task.cpp   **** 	AT(NOW() + length_ms * MILLISECONDS);
 495              		.loc 5 124 0
 496 0014 FFF7FEFF 		bl	_ZN5RODOS9TimeModel14getNanosecondsEv
 497 0018 0446     		mov	r4, r0
 498 001a 0D46     		mov	r5, r1
 499 001c 3968     		ldr	r1, [r7, #0]
 500 001e 0A46     		mov	r2, r1
 501 0020 4FF00003 		mov	r3, #0
 502 0024 44F24021 		movw	r1, #16960
 503 0028 C0F20F01 		movt	r1, 15
 504 002c 01FB03F0 		mul	r0, r1, r3
 505 0030 4FF00001 		mov	r1, #0
 506 0034 01FB02F1 		mul	r1, r1, r2
 507 0038 4018     		adds	r0, r0, r1
 508 003a 44F24021 		movw	r1, #16960
 509 003e C0F20F01 		movt	r1, 15
 510 0042 A2FB0123 		umull	r2, r3, r2, r1
 511 0046 C118     		adds	r1, r0, r3
 512 0048 0B46     		mov	r3, r1
 513 004a 1219     		adds	r2, r2, r4
 514 004c 43EB0503 		adc	r3, r3, r5
 515 0050 1046     		mov	r0, r2
 516 0052 1946     		mov	r1, r3
 517 0054 4FF00002 		mov	r2, #0
 518 0058 FFF7FEFF 		bl	_ZN5RODOS6Thread18suspendCallerUntilExPv
 125:../Task.cpp   **** 	led.setPins(0);
 519              		.loc 5 125 0
 520 005c 7868     		ldr	r0, [r7, #4]
 521 005e 4FF00001 		mov	r1, #0
 522 0062 FFF7FEFF 		bl	_ZN5RODOS8HAL_GPIO7setPinsEm
 126:../Task.cpp   **** }
 523              		.loc 5 126 0
 524 0066 07F10807 		add	r7, r7, #8
 525 006a BD46     		mov	sp, r7
 526 006c B0BD     		pop	{r4, r5, r7, pc}
 527              		.cfi_endproc
 528              	.LFE191:
 530 006e 00BF     		.section	.text._ZL9changeLEDRN5RODOS8HAL_GPIOEb,"ax",%progbits
 531              		.align	2
 532              		.thumb
 533              		.thumb_func
 535              	_ZL9changeLEDRN5RODOS8HAL_GPIOEb:
 536              	.LFB192:
 127:../Task.cpp   **** 
 128:../Task.cpp   **** static void changeLED(HAL_GPIO& led, bool on = true) {
 537              		.loc 5 128 0
 538              		.cfi_startproc
 539              		@ args = 0, pretend = 0, frame = 8
 540              		@ frame_needed = 1, uses_anonymous_args = 0
 541 0000 80B5     		push	{r7, lr}
 542              	.LCFI27:
 543              		.cfi_def_cfa_offset 8
 544              		.cfi_offset 7, -8
 545              		.cfi_offset 14, -4
 546 0002 82B0     		sub	sp, sp, #8
 547              	.LCFI28:
 548              		.cfi_def_cfa_offset 16
 549 0004 00AF     		add	r7, sp, #0
 550              	.LCFI29:
 551              		.cfi_def_cfa_register 7
 552 0006 7860     		str	r0, [r7, #4]
 553 0008 0B46     		mov	r3, r1
 554 000a FB70     		strb	r3, [r7, #3]
 129:../Task.cpp   **** 	led.setPins(on);
 555              		.loc 5 129 0
 556 000c FB78     		ldrb	r3, [r7, #3]	@ zero_extendqisi2
 557 000e 7868     		ldr	r0, [r7, #4]
 558 0010 1946     		mov	r1, r3
 559 0012 FFF7FEFF 		bl	_ZN5RODOS8HAL_GPIO7setPinsEm
 130:../Task.cpp   **** }
 560              		.loc 5 130 0
 561 0016 07F10807 		add	r7, r7, #8
 562 001a BD46     		mov	sp, r7
 563 001c 80BD     		pop	{r7, pc}
 564              		.cfi_endproc
 565              	.LFE192:
 567 001e 00BF     		.section	.rodata
 568 00ab 00       		.align	2
 569              	.LC1:
 570 00ac 10       		.byte	16
 571 00ad 98       		.byte	-104
 572 00ae 0000     		.align	2
 573              	.LC2:
 574 00b0 20       		.byte	32
 575 00b1 83       		.byte	-125
 576              		.section	.text._ZL6initAGRN5RODOS7HAL_I2CE,"ax",%progbits
 577              		.align	2
 578              		.thumb
 579              		.thumb_func
 581              	_ZL6initAGRN5RODOS7HAL_I2CE:
 582              	.LFB193:
 131:../Task.cpp   **** 
 132:../Task.cpp   **** //*******************************************************************************
 133:../Task.cpp   **** 
 134:../Task.cpp   **** // Initialisiert Accelerometer & Gyroscope:
 135:../Task.cpp   **** static void initAG(HAL_I2C& imu) {
 583              		.loc 5 135 0
 584              		.cfi_startproc
 585              		@ args = 0, pretend = 0, frame = 16
 586              		@ frame_needed = 1, uses_anonymous_args = 0
 587 0000 80B5     		push	{r7, lr}
 588              	.LCFI30:
 589              		.cfi_def_cfa_offset 8
 590              		.cfi_offset 7, -8
 591              		.cfi_offset 14, -4
 592 0002 84B0     		sub	sp, sp, #16
 593              	.LCFI31:
 594              		.cfi_def_cfa_offset 24
 595 0004 00AF     		add	r7, sp, #0
 596              	.LCFI32:
 597              		.cfi_def_cfa_register 7
 598 0006 7860     		str	r0, [r7, #4]
 599              	.LBB5:
 136:../Task.cpp   **** 	uint8_t config_1[2] = { init_CTRL_REG1_G_addr, init_CTRL_REG1_G_val };
 600              		.loc 5 136 0
 601 0008 40F20003 		movw	r3, #:lower16:.LC1
 602 000c C0F20003 		movt	r3, #:upper16:.LC1
 603 0010 07F10C02 		add	r2, r7, #12
 604 0014 1B88     		ldrh	r3, [r3, #0]	@ unaligned
 605 0016 1380     		strh	r3, [r2, #0]	@ unaligned
 137:../Task.cpp   **** 	uint8_t config_2[2] = { init_CTRL_REG6_XL_addr, init_CTRL_REG6_XL_val };
 606              		.loc 5 137 0
 607 0018 40F20003 		movw	r3, #:lower16:.LC2
 608 001c C0F20003 		movt	r3, #:upper16:.LC2
 609 0020 07F10802 		add	r2, r7, #8
 610 0024 1B88     		ldrh	r3, [r3, #0]	@ unaligned
 611 0026 1380     		strh	r3, [r2, #0]	@ unaligned
 138:../Task.cpp   **** 
 139:../Task.cpp   **** 	imu.write(LSM9DS1_AG, config_1, 2);
 612              		.loc 5 139 0
 613 0028 07F10C03 		add	r3, r7, #12
 614 002c 7868     		ldr	r0, [r7, #4]
 615 002e 4FF06B01 		mov	r1, #107
 616 0032 1A46     		mov	r2, r3
 617 0034 4FF00203 		mov	r3, #2
 618 0038 FFF7FEFF 		bl	_ZN5RODOS7HAL_I2C5writeEhPKhm
 140:../Task.cpp   **** 	imu.write(LSM9DS1_AG, config_2, 2);
 619              		.loc 5 140 0
 620 003c 07F10803 		add	r3, r7, #8
 621 0040 7868     		ldr	r0, [r7, #4]
 622 0042 4FF06B01 		mov	r1, #107
 623 0046 1A46     		mov	r2, r3
 624 0048 4FF00203 		mov	r3, #2
 625 004c FFF7FEFF 		bl	_ZN5RODOS7HAL_I2C5writeEhPKhm
 626              	.LBE5:
 141:../Task.cpp   **** }
 627              		.loc 5 141 0
 628 0050 07F11007 		add	r7, r7, #16
 629 0054 BD46     		mov	sp, r7
 630 0056 80BD     		pop	{r7, pc}
 631              		.cfi_endproc
 632              	.LFE193:
 634              		.section	.rodata
 635 00b2 0000     		.align	2
 636              	.LC0:
 637 00b4 20       		.byte	32
 638 00b5 1C       		.byte	28
 639              		.section	.text._ZL5initMRN5RODOS7HAL_I2CE,"ax",%progbits
 640              		.align	2
 641              		.thumb
 642              		.thumb_func
 644              	_ZL5initMRN5RODOS7HAL_I2CE:
 645              	.LFB194:
 142:../Task.cpp   **** 
 143:../Task.cpp   **** // Initialisiert Magnetometer:
 144:../Task.cpp   **** static void initM(HAL_I2C& imu) {
 646              		.loc 5 144 0
 647              		.cfi_startproc
 648              		@ args = 0, pretend = 0, frame = 24
 649              		@ frame_needed = 1, uses_anonymous_args = 0
 650 0000 80B5     		push	{r7, lr}
 651              	.LCFI33:
 652              		.cfi_def_cfa_offset 8
 653              		.cfi_offset 7, -8
 654              		.cfi_offset 14, -4
 655 0002 86B0     		sub	sp, sp, #24
 656              	.LCFI34:
 657              		.cfi_def_cfa_offset 32
 658 0004 00AF     		add	r7, sp, #0
 659              	.LCFI35:
 660              		.cfi_def_cfa_register 7
 661 0006 7860     		str	r0, [r7, #4]
 662              	.LBB6:
 145:../Task.cpp   **** 	uint8_t config_1[2] = { init_CTRL_REG1_M_addr, init_CTRL_REG1_M_val };
 663              		.loc 5 145 0
 664 0008 40F20003 		movw	r3, #:lower16:.LC0
 665 000c C0F20003 		movt	r3, #:upper16:.LC0
 666 0010 07F11402 		add	r2, r7, #20
 667 0014 1B88     		ldrh	r3, [r3, #0]	@ unaligned
 668 0016 1380     		strh	r3, [r2, #0]	@ unaligned
 146:../Task.cpp   **** 	uint8_t config_2[2] = { init_CTRL_REG2_M_addr, init_CTRL_REG2_M_val };
 669              		.loc 5 146 0
 670 0018 4FF02103 		mov	r3, #33
 671 001c 3B74     		strb	r3, [r7, #16]
 672 001e 4FF00003 		mov	r3, #0
 673 0022 7B74     		strb	r3, [r7, #17]
 147:../Task.cpp   **** 	uint8_t config_3[2] = { init_CTRL_REG3_M_addr, init_CTRL_REG3_M_val };
 674              		.loc 5 147 0
 675 0024 4FF02203 		mov	r3, #34
 676 0028 3B73     		strb	r3, [r7, #12]
 677 002a 4FF00003 		mov	r3, #0
 678 002e 7B73     		strb	r3, [r7, #13]
 148:../Task.cpp   **** 
 149:../Task.cpp   **** 	imu.write(LSM9DS1_M, config_1, 2);
 679              		.loc 5 149 0
 680 0030 07F11403 		add	r3, r7, #20
 681 0034 7868     		ldr	r0, [r7, #4]
 682 0036 4FF01E01 		mov	r1, #30
 683 003a 1A46     		mov	r2, r3
 684 003c 4FF00203 		mov	r3, #2
 685 0040 FFF7FEFF 		bl	_ZN5RODOS7HAL_I2C5writeEhPKhm
 150:../Task.cpp   **** 	imu.write(LSM9DS1_M, config_2, 2);
 686              		.loc 5 150 0
 687 0044 07F11003 		add	r3, r7, #16
 688 0048 7868     		ldr	r0, [r7, #4]
 689 004a 4FF01E01 		mov	r1, #30
 690 004e 1A46     		mov	r2, r3
 691 0050 4FF00203 		mov	r3, #2
 692 0054 FFF7FEFF 		bl	_ZN5RODOS7HAL_I2C5writeEhPKhm
 151:../Task.cpp   **** 	imu.write(LSM9DS1_M, config_3, 2);
 693              		.loc 5 151 0
 694 0058 07F10C03 		add	r3, r7, #12
 695 005c 7868     		ldr	r0, [r7, #4]
 696 005e 4FF01E01 		mov	r1, #30
 697 0062 1A46     		mov	r2, r3
 698 0064 4FF00203 		mov	r3, #2
 699 0068 FFF7FEFF 		bl	_ZN5RODOS7HAL_I2C5writeEhPKhm
 700              	.LBE6:
 152:../Task.cpp   **** }
 701              		.loc 5 152 0
 702 006c 07F11807 		add	r7, r7, #24
 703 0070 BD46     		mov	sp, r7
 704 0072 80BD     		pop	{r7, pc}
 705              		.cfi_endproc
 706              	.LFE194:
 708              		.section	.rodata
 709 00b6 0000     		.align	2
 710              	.LC6:
 711 00b8 0A257300 		.ascii	"\012%s\000"
 712              		.section	.text._ZL9writeUARTRN5RODOS8HAL_UARTEPKc,"ax",%progbits
 713              		.align	2
 714              		.thumb
 715              		.thumb_func
 717              	_ZL9writeUARTRN5RODOS8HAL_UARTEPKc:
 718              	.LFB195:
 153:../Task.cpp   **** 
 154:../Task.cpp   **** //*******************************************************************************
 155:../Task.cpp   **** 
 156:../Task.cpp   **** // Schreibt einen String in UART:
 157:../Task.cpp   **** static void writeUART(HAL_UART& uart, const char* string) {
 719              		.loc 5 157 0
 720              		.cfi_startproc
 721              		@ args = 0, pretend = 0, frame = 16
 722              		@ frame_needed = 1, uses_anonymous_args = 0
 723 0000 80B5     		push	{r7, lr}
 724              	.LCFI36:
 725              		.cfi_def_cfa_offset 8
 726              		.cfi_offset 7, -8
 727              		.cfi_offset 14, -4
 728 0002 84B0     		sub	sp, sp, #16
 729              	.LCFI37:
 730              		.cfi_def_cfa_offset 24
 731 0004 00AF     		add	r7, sp, #0
 732              	.LCFI38:
 733              		.cfi_def_cfa_register 7
 734 0006 7860     		str	r0, [r7, #4]
 735 0008 3960     		str	r1, [r7, #0]
 736              	.LBB7:
 158:../Task.cpp   **** 	const int len = strlen(string);
 737              		.loc 5 158 0
 738 000a 3868     		ldr	r0, [r7, #0]
 739 000c FFF7FEFF 		bl	_ZN5RODOS6strlenEPKc
 740 0010 0346     		mov	r3, r0
 741 0012 FB60     		str	r3, [r7, #12]
 159:../Task.cpp   **** 
 160:../Task.cpp   **** 	char *str = (char*) calloc(sizeof(char), len + 1);
 742              		.loc 5 160 0
 743 0014 FB68     		ldr	r3, [r7, #12]
 744 0016 03F10103 		add	r3, r3, #1
 745 001a 4FF00100 		mov	r0, #1
 746 001e 1946     		mov	r1, r3
 747 0020 FFF7FEFF 		bl	calloc
 748 0024 0346     		mov	r3, r0
 749 0026 BB60     		str	r3, [r7, #8]
 161:../Task.cpp   **** 
 162:../Task.cpp   **** 	sprintf(str, "\n%s", string); // TODO \r evtl. noch anfgen!
 750              		.loc 5 162 0
 751 0028 B868     		ldr	r0, [r7, #8]
 752 002a 40F20001 		movw	r1, #:lower16:.LC6
 753 002e C0F20001 		movt	r1, #:upper16:.LC6
 754 0032 3A68     		ldr	r2, [r7, #0]
 755 0034 FFF7FEFF 		bl	sprintf
 163:../Task.cpp   **** 
 164:../Task.cpp   **** 	uart.write(str, len);
 756              		.loc 5 164 0
 757 0038 7B68     		ldr	r3, [r7, #4]
 758 003a 1B68     		ldr	r3, [r3, #0]
 759 003c 03F14003 		add	r3, r3, #64
 760 0040 1B68     		ldr	r3, [r3, #0]
 761 0042 7868     		ldr	r0, [r7, #4]
 762 0044 B968     		ldr	r1, [r7, #8]
 763 0046 FA68     		ldr	r2, [r7, #12]
 764 0048 9847     		blx	r3
 165:../Task.cpp   **** 
 166:../Task.cpp   **** 	free(str);
 765              		.loc 5 166 0
 766 004a B868     		ldr	r0, [r7, #8]
 767 004c FFF7FEFF 		bl	free
 768              	.LBE7:
 167:../Task.cpp   **** }
 769              		.loc 5 167 0
 770 0050 07F11007 		add	r7, r7, #16
 771 0054 BD46     		mov	sp, r7
 772 0056 80BD     		pop	{r7, pc}
 773              		.cfi_endproc
 774              	.LFE195:
 776              		.section	.text._ZL16readSensor2BytesRshh,"ax",%progbits
 777              		.align	2
 778              		.thumb
 779              		.thumb_func
 781              	_ZL16readSensor2BytesRshh:
 782              	.LFB196:
 168:../Task.cpp   **** 
 169:../Task.cpp   **** //*******************************************************************************
 170:../Task.cpp   **** 
 171:../Task.cpp   **** static void readSensor2Bytes(int16_t& _temp, uint8_t sensorAddress,
 172:../Task.cpp   **** 		uint8_t regAddress) {
 783              		.loc 5 172 0
 784              		.cfi_startproc
 785              		@ args = 0, pretend = 0, frame = 16
 786              		@ frame_needed = 1, uses_anonymous_args = 0
 787 0000 80B5     		push	{r7, lr}
 788              	.LCFI39:
 789              		.cfi_def_cfa_offset 8
 790              		.cfi_offset 7, -8
 791              		.cfi_offset 14, -4
 792 0002 86B0     		sub	sp, sp, #24
 793              	.LCFI40:
 794              		.cfi_def_cfa_offset 32
 795 0004 02AF     		add	r7, sp, #8
 796              	.LCFI41:
 797              		.cfi_def_cfa 7, 24
 798 0006 7860     		str	r0, [r7, #4]
 799 0008 1346     		mov	r3, r2
 800 000a 0A46     		mov	r2, r1
 801 000c FA70     		strb	r2, [r7, #3]
 802 000e BB70     		strb	r3, [r7, #2]
 803              	.LBB8:
 173:../Task.cpp   **** 	uint8_t temp[2];
 174:../Task.cpp   **** 	uint8_t addr[1] = { regAddress };
 804              		.loc 5 174 0
 805 0010 BB78     		ldrb	r3, [r7, #2]
 806 0012 3B72     		strb	r3, [r7, #8]
 175:../Task.cpp   **** 
 176:../Task.cpp   **** 	IMU.writeRead(sensorAddress, addr, 1, temp, 2); // 2 Bytes lesen
 807              		.loc 5 176 0
 808 0014 FA78     		ldrb	r2, [r7, #3]	@ zero_extendqisi2
 809 0016 07F10803 		add	r3, r7, #8
 810 001a 07F10C01 		add	r1, r7, #12
 811 001e 0091     		str	r1, [sp, #0]
 812 0020 4FF00201 		mov	r1, #2
 813 0024 0191     		str	r1, [sp, #4]
 814 0026 40F20000 		movw	r0, #:lower16:IMU
 815 002a C0F20000 		movt	r0, #:upper16:IMU
 816 002e 1146     		mov	r1, r2
 817 0030 1A46     		mov	r2, r3
 818 0032 4FF00103 		mov	r3, #1
 819 0036 FFF7FEFF 		bl	_ZN5RODOS7HAL_I2C9writeReadEhPKhmPhm
 177:../Task.cpp   **** 
 178:../Task.cpp   **** 	int16_t temperature = (int16_t) ((temp[1] << 8) | temp[0]); // Temperatur ist ein 12-bit signed In
 820              		.loc 5 178 0
 821 003a 7B7B     		ldrb	r3, [r7, #13]	@ zero_extendqisi2
 822 003c 4FEA0323 		lsl	r3, r3, #8
 823 0040 9AB2     		uxth	r2, r3
 824 0042 3B7B     		ldrb	r3, [r7, #12]	@ zero_extendqisi2
 825 0044 1343     		orrs	r3, r3, r2
 826 0046 FB81     		strh	r3, [r7, #14]	@ movhi
 179:../Task.cpp   **** 
 180:../Task.cpp   **** 	_temp = temperature;
 827              		.loc 5 180 0
 828 0048 7B68     		ldr	r3, [r7, #4]
 829 004a FA89     		ldrh	r2, [r7, #14]	@ movhi
 830 004c 1A80     		strh	r2, [r3, #0]	@ movhi
 831              	.LBE8:
 181:../Task.cpp   **** }
 832              		.loc 5 181 0
 833 004e 07F11007 		add	r7, r7, #16
 834 0052 BD46     		mov	sp, r7
 835 0054 80BD     		pop	{r7, pc}
 836              		.cfi_endproc
 837              	.LFE196:
 839 0056 00BF     		.section	.text._ZL16readSensor6BytesRA3_shh,"ax",%progbits
 840              		.align	2
 841              		.thumb
 842              		.thumb_func
 844              	_ZL16readSensor6BytesRA3_shh:
 845              	.LFB197:
 182:../Task.cpp   **** 
 183:../Task.cpp   **** // Liest 6-Bytes von einem Sensor (auer Temperatur!) ein:
 184:../Task.cpp   **** static void readSensor6Bytes(int16_t (&arr)[3], uint8_t sensorAddress,
 185:../Task.cpp   **** 		uint8_t regAddress) {
 846              		.loc 5 185 0
 847              		.cfi_startproc
 848              		@ args = 0, pretend = 0, frame = 24
 849              		@ frame_needed = 1, uses_anonymous_args = 0
 850 0000 80B5     		push	{r7, lr}
 851              	.LCFI42:
 852              		.cfi_def_cfa_offset 8
 853              		.cfi_offset 7, -8
 854              		.cfi_offset 14, -4
 855 0002 88B0     		sub	sp, sp, #32
 856              	.LCFI43:
 857              		.cfi_def_cfa_offset 40
 858 0004 02AF     		add	r7, sp, #8
 859              	.LCFI44:
 860              		.cfi_def_cfa 7, 32
 861 0006 7860     		str	r0, [r7, #4]
 862 0008 1346     		mov	r3, r2
 863 000a 0A46     		mov	r2, r1
 864 000c FA70     		strb	r2, [r7, #3]
 865 000e BB70     		strb	r3, [r7, #2]
 866              	.LBB9:
 186:../Task.cpp   **** 	uint8_t temp[6];
 187:../Task.cpp   **** 	uint8_t addr[1] = { regAddress };
 867              		.loc 5 187 0
 868 0010 BB78     		ldrb	r3, [r7, #2]
 869 0012 3B72     		strb	r3, [r7, #8]
 188:../Task.cpp   **** 
 189:../Task.cpp   **** 	IMU.writeRead(sensorAddress, addr, 1, temp, 6);
 870              		.loc 5 189 0
 871 0014 FA78     		ldrb	r2, [r7, #3]	@ zero_extendqisi2
 872 0016 07F10803 		add	r3, r7, #8
 873 001a 07F10C01 		add	r1, r7, #12
 874 001e 0091     		str	r1, [sp, #0]
 875 0020 4FF00601 		mov	r1, #6
 876 0024 0191     		str	r1, [sp, #4]
 877 0026 40F20000 		movw	r0, #:lower16:IMU
 878 002a C0F20000 		movt	r0, #:upper16:IMU
 879 002e 1146     		mov	r1, r2
 880 0030 1A46     		mov	r2, r3
 881 0032 4FF00103 		mov	r3, #1
 882 0036 FFF7FEFF 		bl	_ZN5RODOS7HAL_I2C9writeReadEhPKhmPhm
 190:../Task.cpp   **** 
 191:../Task.cpp   **** 	int16_t x, y, z; // kombiniert je zwei 8-Bit-Register zu 16-Bit Ganzzahl
 192:../Task.cpp   **** 	x = (int16_t) ((temp[1] << 8) | temp[0]);
 883              		.loc 5 192 0
 884 003a 7B7B     		ldrb	r3, [r7, #13]	@ zero_extendqisi2
 885 003c 4FEA0323 		lsl	r3, r3, #8
 886 0040 9AB2     		uxth	r2, r3
 887 0042 3B7B     		ldrb	r3, [r7, #12]	@ zero_extendqisi2
 888 0044 1343     		orrs	r3, r3, r2
 889 0046 FB82     		strh	r3, [r7, #22]	@ movhi
 193:../Task.cpp   **** 	y = (int16_t) ((temp[3] << 8) | temp[2]);
 890              		.loc 5 193 0
 891 0048 FB7B     		ldrb	r3, [r7, #15]	@ zero_extendqisi2
 892 004a 4FEA0323 		lsl	r3, r3, #8
 893 004e 9AB2     		uxth	r2, r3
 894 0050 BB7B     		ldrb	r3, [r7, #14]	@ zero_extendqisi2
 895 0052 1343     		orrs	r3, r3, r2
 896 0054 BB82     		strh	r3, [r7, #20]	@ movhi
 194:../Task.cpp   **** 	z = (int16_t) ((temp[5] << 8) | temp[4]);
 897              		.loc 5 194 0
 898 0056 7B7C     		ldrb	r3, [r7, #17]	@ zero_extendqisi2
 899 0058 4FEA0323 		lsl	r3, r3, #8
 900 005c 9AB2     		uxth	r2, r3
 901 005e 3B7C     		ldrb	r3, [r7, #16]	@ zero_extendqisi2
 902 0060 1343     		orrs	r3, r3, r2
 903 0062 7B82     		strh	r3, [r7, #18]	@ movhi
 195:../Task.cpp   **** 
 196:../Task.cpp   **** 	// Ganzzahlen noch mit jeweiligem LSB multiplizieren um Dezimalwert zu erhalten:
 197:../Task.cpp   **** 	arr[0] = x;
 904              		.loc 5 197 0
 905 0064 7B68     		ldr	r3, [r7, #4]
 906 0066 FA8A     		ldrh	r2, [r7, #22]	@ movhi
 907 0068 1A80     		strh	r2, [r3, #0]	@ movhi
 198:../Task.cpp   **** 	arr[1] = y;
 908              		.loc 5 198 0
 909 006a 7B68     		ldr	r3, [r7, #4]
 910 006c BA8A     		ldrh	r2, [r7, #20]	@ movhi
 911 006e 5A80     		strh	r2, [r3, #2]	@ movhi
 199:../Task.cpp   **** 	arr[2] = z;
 912              		.loc 5 199 0
 913 0070 7B68     		ldr	r3, [r7, #4]
 914 0072 7A8A     		ldrh	r2, [r7, #18]	@ movhi
 915 0074 9A80     		strh	r2, [r3, #4]	@ movhi
 916              	.LBE9:
 200:../Task.cpp   **** }
 917              		.loc 5 200 0
 918 0076 07F11807 		add	r7, r7, #24
 919 007a BD46     		mov	sp, r7
 920 007c 80BD     		pop	{r7, pc}
 921              		.cfi_endproc
 922              	.LFE197:
 924 007e 00BF     		.section	.text._ZL9calibrateRA3_xhhtm,"ax",%progbits
 925              		.align	2
 926              		.thumb
 927              		.thumb_func
 929              	_ZL9calibrateRA3_xhhtm:
 930              	.LFB198:
 201:../Task.cpp   **** 
 202:../Task.cpp   **** //*******************************************************************************
 203:../Task.cpp   **** 
 204:../Task.cpp   **** // Nimmt 100 Messungen im Abstand von 10ms auf und gibt gemittelte Werte zurck
 205:../Task.cpp   **** static void calibrate(int64_t (&Offset)[3], uint8_t sensorAddress,
 206:../Task.cpp   **** 		uint8_t regAddress, uint16_t length_ms = 50, uint32_t numberOfSamples =
 207:../Task.cpp   **** 				100) {
 931              		.loc 5 207 0
 932              		.cfi_startproc
 933              		@ args = 4, pretend = 0, frame = 48
 934              		@ frame_needed = 1, uses_anonymous_args = 0
 935 0000 B0B5     		push	{r4, r5, r7, lr}
 936              	.LCFI45:
 937              		.cfi_def_cfa_offset 16
 938              		.cfi_offset 4, -16
 939              		.cfi_offset 5, -12
 940              		.cfi_offset 7, -8
 941              		.cfi_offset 14, -4
 942 0002 8CB0     		sub	sp, sp, #48
 943              	.LCFI46:
 944              		.cfi_def_cfa_offset 64
 945 0004 00AF     		add	r7, sp, #0
 946              	.LCFI47:
 947              		.cfi_def_cfa_register 7
 948 0006 7860     		str	r0, [r7, #4]
 949 0008 F970     		strb	r1, [r7, #3]
 950 000a BA70     		strb	r2, [r7, #2]
 951 000c 3B80     		strh	r3, [r7, #0]	@ movhi
 952              	.LBB10:
 953              	.LBB11:
 208:../Task.cpp   **** 	int64_t data[3]; // summiert auf, muss daher grer als 16 Bits sein!
 209:../Task.cpp   **** 	int16_t temp[3];
 210:../Task.cpp   **** 
 211:../Task.cpp   **** 	for (uint i = 0; i < numberOfSamples; i++) {
 954              		.loc 5 211 0
 955 000e 4FF00003 		mov	r3, #0
 956 0012 FB62     		str	r3, [r7, #44]
 957 0014 50E0     		b	.L39
 958              	.L40:
 212:../Task.cpp   **** 		readSensor6Bytes(temp, sensorAddress, regAddress); // Hier mit LSB 1, damit die Werte ohne Nachko
 959              		.loc 5 212 0 discriminator 2
 960 0016 07F10801 		add	r1, r7, #8
 961 001a FA78     		ldrb	r2, [r7, #3]	@ zero_extendqisi2
 962 001c BB78     		ldrb	r3, [r7, #2]	@ zero_extendqisi2
 963 001e 0846     		mov	r0, r1
 964 0020 1146     		mov	r1, r2
 965 0022 1A46     		mov	r2, r3
 966 0024 FFF7FEFF 		bl	_ZL16readSensor6BytesRA3_shh
 213:../Task.cpp   **** 
 214:../Task.cpp   **** 		data[0] += temp[0];
 967              		.loc 5 214 0 discriminator 2
 968 0028 D7E90401 		ldrd	r0, [r7, #16]
 969 002c 3C89     		ldrh	r4, [r7, #8]
 970 002e 22B2     		sxth	r2, r4
 971 0030 4FEAE273 		asr	r3, r2, #31
 972 0034 1218     		adds	r2, r2, r0
 973 0036 43EB0103 		adc	r3, r3, r1
 974 003a C7E90423 		strd	r2, [r7, #16]
 215:../Task.cpp   **** 		data[1] += temp[1];
 975              		.loc 5 215 0 discriminator 2
 976 003e D7E90601 		ldrd	r0, [r7, #24]
 977 0042 7C89     		ldrh	r4, [r7, #10]
 978 0044 22B2     		sxth	r2, r4
 979 0046 4FEAE273 		asr	r3, r2, #31
 980 004a 1218     		adds	r2, r2, r0
 981 004c 43EB0103 		adc	r3, r3, r1
 982 0050 C7E90623 		strd	r2, [r7, #24]
 216:../Task.cpp   **** 		data[2] += temp[2];
 983              		.loc 5 216 0 discriminator 2
 984 0054 D7E90801 		ldrd	r0, [r7, #32]
 985 0058 BC89     		ldrh	r4, [r7, #12]
 986 005a 22B2     		sxth	r2, r4
 987 005c 4FEAE273 		asr	r3, r2, #31
 988 0060 1218     		adds	r2, r2, r0
 989 0062 43EB0103 		adc	r3, r3, r1
 990 0066 C7E90823 		strd	r2, [r7, #32]
 217:../Task.cpp   **** 
 218:../Task.cpp   **** 		AT(NOW() + length_ms * MILLISECONDS); // 100 * 10 ms = 1 s (Nach jeder Messung kurz warten, bis d
 991              		.loc 5 218 0 discriminator 2
 992 006a FFF7FEFF 		bl	_ZN5RODOS9TimeModel14getNanosecondsEv
 993 006e 0446     		mov	r4, r0
 994 0070 0D46     		mov	r5, r1
 995 0072 3A88     		ldrh	r2, [r7, #0]
 996 0074 4FF00003 		mov	r3, #0
 997 0078 44F24021 		movw	r1, #16960
 998 007c C0F20F01 		movt	r1, 15
 999 0080 01FB03F0 		mul	r0, r1, r3
 1000 0084 4FF00001 		mov	r1, #0
 1001 0088 01FB02F1 		mul	r1, r1, r2
 1002 008c 4018     		adds	r0, r0, r1
 1003 008e 44F24021 		movw	r1, #16960
 1004 0092 C0F20F01 		movt	r1, 15
 1005 0096 A2FB0123 		umull	r2, r3, r2, r1
 1006 009a C118     		adds	r1, r0, r3
 1007 009c 0B46     		mov	r3, r1
 1008 009e 1219     		adds	r2, r2, r4
 1009 00a0 43EB0503 		adc	r3, r3, r5
 1010 00a4 1046     		mov	r0, r2
 1011 00a6 1946     		mov	r1, r3
 1012 00a8 4FF00002 		mov	r2, #0
 1013 00ac FFF7FEFF 		bl	_ZN5RODOS6Thread18suspendCallerUntilExPv
 211:../Task.cpp   **** 	for (uint i = 0; i < numberOfSamples; i++) {
 1014              		.loc 5 211 0 discriminator 2
 1015 00b0 FB6A     		ldr	r3, [r7, #44]
 1016 00b2 03F10103 		add	r3, r3, #1
 1017 00b6 FB62     		str	r3, [r7, #44]
 1018              	.L39:
 211:../Task.cpp   **** 	for (uint i = 0; i < numberOfSamples; i++) {
 1019              		.loc 5 211 0 is_stmt 0 discriminator 1
 1020 00b8 FA6A     		ldr	r2, [r7, #44]
 1021 00ba 3B6C     		ldr	r3, [r7, #64]
 1022 00bc 9A42     		cmp	r2, r3
 1023 00be 2CBF     		ite	cs
 1024 00c0 0023     		movcs	r3, #0
 1025 00c2 0123     		movcc	r3, #1
 1026 00c4 DBB2     		uxtb	r3, r3
 1027 00c6 002B     		cmp	r3, #0
 1028 00c8 A5D1     		bne	.L40
 1029              	.LBE11:
 219:../Task.cpp   **** 	}
 220:../Task.cpp   **** 
 221:../Task.cpp   **** 	// Offset zuweisen und zurckgeben:
 222:../Task.cpp   **** 	Offset[0] = (data[0]);
 1030              		.loc 5 222 0 is_stmt 1
 1031 00ca D7E90423 		ldrd	r2, [r7, #16]
 1032 00ce 7968     		ldr	r1, [r7, #4]
 1033 00d0 C1E90023 		strd	r2, [r1]
 223:../Task.cpp   **** 	Offset[1] = (data[1]);
 1034              		.loc 5 223 0
 1035 00d4 D7E90623 		ldrd	r2, [r7, #24]
 1036 00d8 7968     		ldr	r1, [r7, #4]
 1037 00da C1E90223 		strd	r2, [r1, #8]
 224:../Task.cpp   **** 	Offset[2] = (data[2]);
 1038              		.loc 5 224 0
 1039 00de D7E90823 		ldrd	r2, [r7, #32]
 1040 00e2 7968     		ldr	r1, [r7, #4]
 1041 00e4 C1E90423 		strd	r2, [r1, #16]
 1042              	.LBE10:
 225:../Task.cpp   **** }
 1043              		.loc 5 225 0
 1044 00e8 07F13007 		add	r7, r7, #48
 1045 00ec BD46     		mov	sp, r7
 1046 00ee B0BD     		pop	{r4, r5, r7, pc}
 1047              		.cfi_endproc
 1048              	.LFE198:
 1050              		.global	__aeabi_l2d
 1051              		.global	__aeabi_ddiv
 1052              		.global	__aeabi_d2iz
 1053              		.section	.text._ZL12calibrateAccRA3_s,"ax",%progbits
 1054              		.align	2
 1055              		.thumb
 1056              		.thumb_func
 1058              	_ZL12calibrateAccRA3_s:
 1059              	.LFB199:
 226:../Task.cpp   **** 
 227:../Task.cpp   **** // Kalibriert Beschleunigungssensor
 228:../Task.cpp   **** static void calibrateAcc(int16_t (&Offset_A)[3]) {
 1060              		.loc 5 228 0
 1061              		.cfi_startproc
 1062              		@ args = 0, pretend = 0, frame = 80
 1063              		@ frame_needed = 1, uses_anonymous_args = 0
 1064 0000 80B5     		push	{r7, lr}
 1065              	.LCFI48:
 1066              		.cfi_def_cfa_offset 8
 1067              		.cfi_offset 7, -8
 1068              		.cfi_offset 14, -4
 1069 0002 96B0     		sub	sp, sp, #88
 1070              	.LCFI49:
 1071              		.cfi_def_cfa_offset 96
 1072 0004 02AF     		add	r7, sp, #8
 1073              	.LCFI50:
 1074              		.cfi_def_cfa 7, 88
 1075 0006 7860     		str	r0, [r7, #4]
 1076              	.LBB12:
 229:../Task.cpp   **** 	// Vorgehensweise:
 230:../Task.cpp   **** 	// erst z-, dann x-, zuletzt y-Achse kalibrieren! Dies dauert jeweils 1 s, dazwischen eine weitere
 231:../Task.cpp   **** 	ToggleLED(LED[3], 250);
 1077              		.loc 5 231 0
 1078 0008 9748     		ldr	r0, .L42+16
 1079 000a 4FF0FA01 		mov	r1, #250
 1080 000e FFF7FEFF 		bl	_ZL9ToggleLEDRN5RODOS8HAL_GPIOEm
 232:../Task.cpp   **** 
 233:../Task.cpp   **** 	int64_t P1[3] = { 0, 0, 0 }, P2[3] = { 0, 0, 0 }, P3[3] = { 0, 0, 0 };
 1081              		.loc 5 233 0
 1082 0012 4FF00002 		mov	r2, #0
 1083 0016 4FF00003 		mov	r3, #0
 1084 001a C7E90E23 		strd	r2, [r7, #56]
 1085 001e 4FF00002 		mov	r2, #0
 1086 0022 4FF00003 		mov	r3, #0
 1087 0026 C7E91023 		strd	r2, [r7, #64]
 1088 002a 4FF00002 		mov	r2, #0
 1089 002e 4FF00003 		mov	r3, #0
 1090 0032 C7E91223 		strd	r2, [r7, #72]
 1091 0036 4FF00002 		mov	r2, #0
 1092 003a 4FF00003 		mov	r3, #0
 1093 003e C7E90823 		strd	r2, [r7, #32]
 1094 0042 4FF00002 		mov	r2, #0
 1095 0046 4FF00003 		mov	r3, #0
 1096 004a C7E90A23 		strd	r2, [r7, #40]
 1097 004e 4FF00002 		mov	r2, #0
 1098 0052 4FF00003 		mov	r3, #0
 1099 0056 C7E90C23 		strd	r2, [r7, #48]
 1100 005a 4FF00002 		mov	r2, #0
 1101 005e 4FF00003 		mov	r3, #0
 1102 0062 C7E90223 		strd	r2, [r7, #8]
 1103 0066 4FF00002 		mov	r2, #0
 1104 006a 4FF00003 		mov	r3, #0
 1105 006e C7E90423 		strd	r2, [r7, #16]
 1106 0072 4FF00002 		mov	r2, #0
 1107 0076 4FF00003 		mov	r3, #0
 1108 007a C7E90623 		strd	r2, [r7, #24]
 234:../Task.cpp   **** 
 235:../Task.cpp   **** 	// ######################################################
 236:../Task.cpp   **** 	calibrate(P1, LSM9DS1_AG, OUT_X_XL); // x = 0, y = 0, z = 1g
 1109              		.loc 5 236 0
 1110 007e 07F13803 		add	r3, r7, #56
 1111 0082 4FF06402 		mov	r2, #100
 1112 0086 0092     		str	r2, [sp, #0]
 1113 0088 1846     		mov	r0, r3
 1114 008a 4FF06B01 		mov	r1, #107
 1115 008e 4FF02802 		mov	r2, #40
 1116 0092 4FF03203 		mov	r3, #50
 1117 0096 FFF7FEFF 		bl	_ZL9calibrateRA3_xhhtm
 237:../Task.cpp   **** 	// ######################################################
 238:../Task.cpp   **** 
 239:../Task.cpp   **** 	ToggleLED(LED[3], 500);
 1118              		.loc 5 239 0
 1119 009a 7348     		ldr	r0, .L42+16
 1120 009c 4FF4FA71 		mov	r1, #500
 1121 00a0 FFF7FEFF 		bl	_ZL9ToggleLEDRN5RODOS8HAL_GPIOEm
 240:../Task.cpp   **** 	AT(NOW() + 500 * MILLISECONDS);
 1122              		.loc 5 240 0
 1123 00a4 FFF7FEFF 		bl	_ZN5RODOS9TimeModel14getNanosecondsEv
 1124 00a8 6BA3     		adr	r3, .L42
 1125 00aa D3E90023 		ldrd	r2, [r3]
 1126 00ae 1218     		adds	r2, r2, r0
 1127 00b0 43EB0103 		adc	r3, r3, r1
 1128 00b4 1046     		mov	r0, r2
 1129 00b6 1946     		mov	r1, r3
 1130 00b8 4FF00002 		mov	r2, #0
 1131 00bc FFF7FEFF 		bl	_ZN5RODOS6Thread18suspendCallerUntilExPv
 241:../Task.cpp   **** 	ToggleLED(LED[3], 500);
 1132              		.loc 5 241 0
 1133 00c0 6948     		ldr	r0, .L42+16
 1134 00c2 4FF4FA71 		mov	r1, #500
 1135 00c6 FFF7FEFF 		bl	_ZL9ToggleLEDRN5RODOS8HAL_GPIOEm
 242:../Task.cpp   **** 
 243:../Task.cpp   **** 	// ######################################################
 244:../Task.cpp   **** 	calibrate(P2, LSM9DS1_AG, OUT_X_XL); // x = 1g, y = 0, z = 0
 1136              		.loc 5 244 0
 1137 00ca 07F12003 		add	r3, r7, #32
 1138 00ce 4FF06402 		mov	r2, #100
 1139 00d2 0092     		str	r2, [sp, #0]
 1140 00d4 1846     		mov	r0, r3
 1141 00d6 4FF06B01 		mov	r1, #107
 1142 00da 4FF02802 		mov	r2, #40
 1143 00de 4FF03203 		mov	r3, #50
 1144 00e2 FFF7FEFF 		bl	_ZL9calibrateRA3_xhhtm
 245:../Task.cpp   **** 	// ######################################################
 246:../Task.cpp   **** 
 247:../Task.cpp   **** 	ToggleLED(LED[3], 500);
 1145              		.loc 5 247 0
 1146 00e6 6048     		ldr	r0, .L42+16
 1147 00e8 4FF4FA71 		mov	r1, #500
 1148 00ec FFF7FEFF 		bl	_ZL9ToggleLEDRN5RODOS8HAL_GPIOEm
 248:../Task.cpp   **** 	AT(NOW() + 1 * SECONDS);
 1149              		.loc 5 248 0
 1150 00f0 FFF7FEFF 		bl	_ZN5RODOS9TimeModel14getNanosecondsEv
 1151 00f4 5AA3     		adr	r3, .L42+8
 1152 00f6 D3E90023 		ldrd	r2, [r3]
 1153 00fa 1218     		adds	r2, r2, r0
 1154 00fc 43EB0103 		adc	r3, r3, r1
 1155 0100 1046     		mov	r0, r2
 1156 0102 1946     		mov	r1, r3
 1157 0104 4FF00002 		mov	r2, #0
 1158 0108 FFF7FEFF 		bl	_ZN5RODOS6Thread18suspendCallerUntilExPv
 249:../Task.cpp   **** 	ToggleLED(LED[3], 500);
 1159              		.loc 5 249 0
 1160 010c 5648     		ldr	r0, .L42+16
 1161 010e 4FF4FA71 		mov	r1, #500
 1162 0112 FFF7FEFF 		bl	_ZL9ToggleLEDRN5RODOS8HAL_GPIOEm
 250:../Task.cpp   **** 
 251:../Task.cpp   **** 	// ######################################################
 252:../Task.cpp   **** 	calibrate(P3, LSM9DS1_AG, OUT_X_XL); // x = 0, y = 1g, z = 0
 1163              		.loc 5 252 0
 1164 0116 07F10803 		add	r3, r7, #8
 1165 011a 4FF06402 		mov	r2, #100
 1166 011e 0092     		str	r2, [sp, #0]
 1167 0120 1846     		mov	r0, r3
 1168 0122 4FF06B01 		mov	r1, #107
 1169 0126 4FF02802 		mov	r2, #40
 1170 012a 4FF03203 		mov	r3, #50
 1171 012e FFF7FEFF 		bl	_ZL9calibrateRA3_xhhtm
 253:../Task.cpp   **** 	// ######################################################
 254:../Task.cpp   **** 
 255:../Task.cpp   **** 	ToggleLED(LED[3], 500);
 1172              		.loc 5 255 0
 1173 0132 4D48     		ldr	r0, .L42+16
 1174 0134 4FF4FA71 		mov	r1, #500
 1175 0138 FFF7FEFF 		bl	_ZL9ToggleLEDRN5RODOS8HAL_GPIOEm
 256:../Task.cpp   **** 	AT(NOW() + 500 * MILLISECONDS);
 1176              		.loc 5 256 0
 1177 013c FFF7FEFF 		bl	_ZN5RODOS9TimeModel14getNanosecondsEv
 1178 0140 45A3     		adr	r3, .L42
 1179 0142 D3E90023 		ldrd	r2, [r3]
 1180 0146 1218     		adds	r2, r2, r0
 1181 0148 43EB0103 		adc	r3, r3, r1
 1182 014c 1046     		mov	r0, r2
 1183 014e 1946     		mov	r1, r3
 1184 0150 4FF00002 		mov	r2, #0
 1185 0154 FFF7FEFF 		bl	_ZN5RODOS6Thread18suspendCallerUntilExPv
 257:../Task.cpp   **** 
 258:../Task.cpp   **** 	// Werte ausrechnen:
 259:../Task.cpp   **** 	// Dabei vernachlssigen das Nachkommastelle gerundet wird, da es sich um sehr groe Zahlen hand
 260:../Task.cpp   **** 	Offset_A[0] = static_cast<int16_t>((P1[0] + P3[0]) / 200.0); // Offset x-Achse
 1186              		.loc 5 260 0
 1187 0158 D7E90E01 		ldrd	r0, [r7, #56]
 1188 015c D7E90223 		ldrd	r2, [r7, #8]
 1189 0160 1218     		adds	r2, r2, r0
 1190 0162 43EB0103 		adc	r3, r3, r1
 1191 0166 1046     		mov	r0, r2
 1192 0168 1946     		mov	r1, r3
 1193 016a FFF7FEFF 		bl	__aeabi_l2d
 1194 016e 0246     		mov	r2, r0
 1195 0170 0B46     		mov	r3, r1
 1196 0172 1046     		mov	r0, r2
 1197 0174 1946     		mov	r1, r3
 1198 0176 4FF00002 		mov	r2, #0
 1199 017a 4FF00003 		mov	r3, #0
 1200 017e C4F26903 		movt	r3, 16489
 1201 0182 FFF7FEFF 		bl	__aeabi_ddiv
 1202 0186 0246     		mov	r2, r0
 1203 0188 0B46     		mov	r3, r1
 1204 018a 1046     		mov	r0, r2
 1205 018c 1946     		mov	r1, r3
 1206 018e FFF7FEFF 		bl	__aeabi_d2iz
 1207 0192 0346     		mov	r3, r0
 1208 0194 9AB2     		uxth	r2, r3
 1209 0196 7B68     		ldr	r3, [r7, #4]
 1210 0198 1A80     		strh	r2, [r3, #0]	@ movhi
 261:../Task.cpp   **** 	Offset_A[1] = static_cast<int16_t>((P1[1] + P2[1]) / 200.0); // Offset y-Achse
 1211              		.loc 5 261 0
 1212 019a D7E91001 		ldrd	r0, [r7, #64]
 1213 019e D7E90A23 		ldrd	r2, [r7, #40]
 1214 01a2 1218     		adds	r2, r2, r0
 1215 01a4 43EB0103 		adc	r3, r3, r1
 1216 01a8 1046     		mov	r0, r2
 1217 01aa 1946     		mov	r1, r3
 1218 01ac FFF7FEFF 		bl	__aeabi_l2d
 1219 01b0 0246     		mov	r2, r0
 1220 01b2 0B46     		mov	r3, r1
 1221 01b4 1046     		mov	r0, r2
 1222 01b6 1946     		mov	r1, r3
 1223 01b8 4FF00002 		mov	r2, #0
 1224 01bc 4FF00003 		mov	r3, #0
 1225 01c0 C4F26903 		movt	r3, 16489
 1226 01c4 FFF7FEFF 		bl	__aeabi_ddiv
 1227 01c8 0246     		mov	r2, r0
 1228 01ca 0B46     		mov	r3, r1
 1229 01cc 1046     		mov	r0, r2
 1230 01ce 1946     		mov	r1, r3
 1231 01d0 FFF7FEFF 		bl	__aeabi_d2iz
 1232 01d4 0346     		mov	r3, r0
 1233 01d6 9AB2     		uxth	r2, r3
 1234 01d8 7B68     		ldr	r3, [r7, #4]
 1235 01da 5A80     		strh	r2, [r3, #2]	@ movhi
 262:../Task.cpp   **** 	Offset_A[2] = static_cast<int16_t>((P3[2] + P2[2]) / 200.0); // Offset z-Achse
 1236              		.loc 5 262 0
 1237 01dc D7E90601 		ldrd	r0, [r7, #24]
 1238 01e0 D7E90C23 		ldrd	r2, [r7, #48]
 1239 01e4 1218     		adds	r2, r2, r0
 1240 01e6 43EB0103 		adc	r3, r3, r1
 1241 01ea 1046     		mov	r0, r2
 1242 01ec 1946     		mov	r1, r3
 1243 01ee FFF7FEFF 		bl	__aeabi_l2d
 1244 01f2 0246     		mov	r2, r0
 1245 01f4 0B46     		mov	r3, r1
 1246 01f6 1046     		mov	r0, r2
 1247 01f8 1946     		mov	r1, r3
 1248 01fa 4FF00002 		mov	r2, #0
 1249 01fe 4FF00003 		mov	r3, #0
 1250 0202 C4F26903 		movt	r3, 16489
 1251 0206 FFF7FEFF 		bl	__aeabi_ddiv
 1252 020a 0246     		mov	r2, r0
 1253 020c 0B46     		mov	r3, r1
 1254 020e 1046     		mov	r0, r2
 1255 0210 1946     		mov	r1, r3
 1256 0212 FFF7FEFF 		bl	__aeabi_d2iz
 1257 0216 0346     		mov	r3, r0
 1258 0218 9AB2     		uxth	r2, r3
 1259 021a 7B68     		ldr	r3, [r7, #4]
 1260 021c 9A80     		strh	r2, [r3, #4]	@ movhi
 263:../Task.cpp   **** 
 264:../Task.cpp   **** 	// Abschluss signalisieren:
 265:../Task.cpp   **** 	ToggleLED(LED[3], 500);
 1261              		.loc 5 265 0
 1262 021e 1248     		ldr	r0, .L42+16
 1263 0220 4FF4FA71 		mov	r1, #500
 1264 0224 FFF7FEFF 		bl	_ZL9ToggleLEDRN5RODOS8HAL_GPIOEm
 266:../Task.cpp   **** 	AT(NOW() + 500 * MILLISECONDS);
 1265              		.loc 5 266 0
 1266 0228 FFF7FEFF 		bl	_ZN5RODOS9TimeModel14getNanosecondsEv
 1267 022c 0AA3     		adr	r3, .L42
 1268 022e D3E90023 		ldrd	r2, [r3]
 1269 0232 1218     		adds	r2, r2, r0
 1270 0234 43EB0103 		adc	r3, r3, r1
 1271 0238 1046     		mov	r0, r2
 1272 023a 1946     		mov	r1, r3
 1273 023c 4FF00002 		mov	r2, #0
 1274 0240 FFF7FEFF 		bl	_ZN5RODOS6Thread18suspendCallerUntilExPv
 267:../Task.cpp   **** 	ToggleLED(LED[3], 500);
 1275              		.loc 5 267 0
 1276 0244 0848     		ldr	r0, .L42+16
 1277 0246 4FF4FA71 		mov	r1, #500
 1278 024a FFF7FEFF 		bl	_ZL9ToggleLEDRN5RODOS8HAL_GPIOEm
 1279              	.LBE12:
 268:../Task.cpp   **** }
 1280              		.loc 5 268 0
 1281 024e 07F15007 		add	r7, r7, #80
 1282 0252 BD46     		mov	sp, r7
 1283 0254 80BD     		pop	{r7, pc}
 1284              	.L43:
 1285 0256 00BF     		.align	3
 1286              	.L42:
 1287 0258 0065CD1D 		.word	500000000
 1288 025c 00000000 		.word	0
 1289 0260 00CA9A3B 		.word	1000000000
 1290 0264 00000000 		.word	0
 1291 0268 54000000 		.word	LED+84
 1292              		.cfi_endproc
 1293              	.LFE199:
 1295 026c AFF30080 		.section	.text._ZL13calibrateGyroRA3_s,"ax",%progbits
 1296              		.align	2
 1297              		.thumb
 1298              		.thumb_func
 1300              	_ZL13calibrateGyroRA3_s:
 1301              	.LFB200:
 269:../Task.cpp   **** 
 270:../Task.cpp   **** // Kalibriert Gyroskop
 271:../Task.cpp   **** static void calibrateGyro(int16_t (&Offset_G)[3]) {
 1302              		.loc 5 271 0
 1303              		.cfi_startproc
 1304              		@ args = 0, pretend = 0, frame = 80
 1305              		@ frame_needed = 1, uses_anonymous_args = 0
 1306 0000 80B5     		push	{r7, lr}
 1307              	.LCFI51:
 1308              		.cfi_def_cfa_offset 8
 1309              		.cfi_offset 7, -8
 1310              		.cfi_offset 14, -4
 1311 0002 96B0     		sub	sp, sp, #88
 1312              	.LCFI52:
 1313              		.cfi_def_cfa_offset 96
 1314 0004 02AF     		add	r7, sp, #8
 1315              	.LCFI53:
 1316              		.cfi_def_cfa 7, 88
 1317 0006 7860     		str	r0, [r7, #4]
 1318              	.LBB13:
 272:../Task.cpp   **** 	// Vorgehensweise:
 273:../Task.cpp   **** 	// erst z-, dann x-, zuletzt y-Achse kalibrieren! Dies dauert jeweils 1 s, dazwischen eine weitere
 274:../Task.cpp   **** 	ToggleLED(LED[3], 500);
 1319              		.loc 5 274 0
 1320 0008 8D48     		ldr	r0, .L45+8
 1321 000a 4FF4FA71 		mov	r1, #500
 1322 000e FFF7FEFF 		bl	_ZL9ToggleLEDRN5RODOS8HAL_GPIOEm
 275:../Task.cpp   **** 
 276:../Task.cpp   **** 	int64_t P1[3] = { 0, 0, 0 }, P2[3] = { 0, 0, 0 }, P3[3] = { 0, 0, 0 };
 1323              		.loc 5 276 0
 1324 0012 4FF00002 		mov	r2, #0
 1325 0016 4FF00003 		mov	r3, #0
 1326 001a C7E90E23 		strd	r2, [r7, #56]
 1327 001e 4FF00002 		mov	r2, #0
 1328 0022 4FF00003 		mov	r3, #0
 1329 0026 C7E91023 		strd	r2, [r7, #64]
 1330 002a 4FF00002 		mov	r2, #0
 1331 002e 4FF00003 		mov	r3, #0
 1332 0032 C7E91223 		strd	r2, [r7, #72]
 1333 0036 4FF00002 		mov	r2, #0
 1334 003a 4FF00003 		mov	r3, #0
 1335 003e C7E90823 		strd	r2, [r7, #32]
 1336 0042 4FF00002 		mov	r2, #0
 1337 0046 4FF00003 		mov	r3, #0
 1338 004a C7E90A23 		strd	r2, [r7, #40]
 1339 004e 4FF00002 		mov	r2, #0
 1340 0052 4FF00003 		mov	r3, #0
 1341 0056 C7E90C23 		strd	r2, [r7, #48]
 1342 005a 4FF00002 		mov	r2, #0
 1343 005e 4FF00003 		mov	r3, #0
 1344 0062 C7E90223 		strd	r2, [r7, #8]
 1345 0066 4FF00002 		mov	r2, #0
 1346 006a 4FF00003 		mov	r3, #0
 1347 006e C7E90423 		strd	r2, [r7, #16]
 1348 0072 4FF00002 		mov	r2, #0
 1349 0076 4FF00003 		mov	r3, #0
 1350 007a C7E90623 		strd	r2, [r7, #24]
 277:../Task.cpp   **** 
 278:../Task.cpp   **** 	// ######################################################
 279:../Task.cpp   **** 	calibrate(P1, LSM9DS1_AG, OUT_X_G, 20); // z-Achse
 1351              		.loc 5 279 0
 1352 007e 07F13803 		add	r3, r7, #56
 1353 0082 4FF06402 		mov	r2, #100
 1354 0086 0092     		str	r2, [sp, #0]
 1355 0088 1846     		mov	r0, r3
 1356 008a 4FF06B01 		mov	r1, #107
 1357 008e 4FF01802 		mov	r2, #24
 1358 0092 4FF01403 		mov	r3, #20
 1359 0096 FFF7FEFF 		bl	_ZL9calibrateRA3_xhhtm
 280:../Task.cpp   **** 	// ######################################################
 281:../Task.cpp   **** 
 282:../Task.cpp   **** 	ToggleLED(LED[3], 500);
 1360              		.loc 5 282 0
 1361 009a 6948     		ldr	r0, .L45+8
 1362 009c 4FF4FA71 		mov	r1, #500
 1363 00a0 FFF7FEFF 		bl	_ZL9ToggleLEDRN5RODOS8HAL_GPIOEm
 283:../Task.cpp   **** 	AT(NOW() + 500 * MILLISECONDS);
 1364              		.loc 5 283 0
 1365 00a4 FFF7FEFF 		bl	_ZN5RODOS9TimeModel14getNanosecondsEv
 1366 00a8 63A3     		adr	r3, .L45
 1367 00aa D3E90023 		ldrd	r2, [r3]
 1368 00ae 1218     		adds	r2, r2, r0
 1369 00b0 43EB0103 		adc	r3, r3, r1
 1370 00b4 1046     		mov	r0, r2
 1371 00b6 1946     		mov	r1, r3
 1372 00b8 4FF00002 		mov	r2, #0
 1373 00bc FFF7FEFF 		bl	_ZN5RODOS6Thread18suspendCallerUntilExPv
 284:../Task.cpp   **** 	ToggleLED(LED[3], 500);
 1374              		.loc 5 284 0
 1375 00c0 5F48     		ldr	r0, .L45+8
 1376 00c2 4FF4FA71 		mov	r1, #500
 1377 00c6 FFF7FEFF 		bl	_ZL9ToggleLEDRN5RODOS8HAL_GPIOEm
 285:../Task.cpp   **** 
 286:../Task.cpp   **** 	// ######################################################
 287:../Task.cpp   **** 	calibrate(P2, LSM9DS1_AG, OUT_X_G, 20); // x-Achse
 1378              		.loc 5 287 0
 1379 00ca 07F12003 		add	r3, r7, #32
 1380 00ce 4FF06402 		mov	r2, #100
 1381 00d2 0092     		str	r2, [sp, #0]
 1382 00d4 1846     		mov	r0, r3
 1383 00d6 4FF06B01 		mov	r1, #107
 1384 00da 4FF01802 		mov	r2, #24
 1385 00de 4FF01403 		mov	r3, #20
 1386 00e2 FFF7FEFF 		bl	_ZL9calibrateRA3_xhhtm
 288:../Task.cpp   **** 	// ######################################################
 289:../Task.cpp   **** 
 290:../Task.cpp   **** 	ToggleLED(LED[3], 500);
 1387              		.loc 5 290 0
 1388 00e6 5648     		ldr	r0, .L45+8
 1389 00e8 4FF4FA71 		mov	r1, #500
 1390 00ec FFF7FEFF 		bl	_ZL9ToggleLEDRN5RODOS8HAL_GPIOEm
 291:../Task.cpp   **** 	AT(NOW() + 500 * MILLISECONDS);
 1391              		.loc 5 291 0
 1392 00f0 FFF7FEFF 		bl	_ZN5RODOS9TimeModel14getNanosecondsEv
 1393 00f4 50A3     		adr	r3, .L45
 1394 00f6 D3E90023 		ldrd	r2, [r3]
 1395 00fa 1218     		adds	r2, r2, r0
 1396 00fc 43EB0103 		adc	r3, r3, r1
 1397 0100 1046     		mov	r0, r2
 1398 0102 1946     		mov	r1, r3
 1399 0104 4FF00002 		mov	r2, #0
 1400 0108 FFF7FEFF 		bl	_ZN5RODOS6Thread18suspendCallerUntilExPv
 292:../Task.cpp   **** 	ToggleLED(LED[3], 500);
 1401              		.loc 5 292 0
 1402 010c 4C48     		ldr	r0, .L45+8
 1403 010e 4FF4FA71 		mov	r1, #500
 1404 0112 FFF7FEFF 		bl	_ZL9ToggleLEDRN5RODOS8HAL_GPIOEm
 293:../Task.cpp   **** 
 294:../Task.cpp   **** 	// ######################################################
 295:../Task.cpp   **** 	calibrate(P3, LSM9DS1_AG, OUT_X_G, 20); // y-Achse
 1405              		.loc 5 295 0
 1406 0116 07F10803 		add	r3, r7, #8
 1407 011a 4FF06402 		mov	r2, #100
 1408 011e 0092     		str	r2, [sp, #0]
 1409 0120 1846     		mov	r0, r3
 1410 0122 4FF06B01 		mov	r1, #107
 1411 0126 4FF01802 		mov	r2, #24
 1412 012a 4FF01403 		mov	r3, #20
 1413 012e FFF7FEFF 		bl	_ZL9calibrateRA3_xhhtm
 296:../Task.cpp   **** 	// ######################################################
 297:../Task.cpp   **** 
 298:../Task.cpp   **** 	ToggleLED(LED[3], 500);
 1414              		.loc 5 298 0
 1415 0132 4348     		ldr	r0, .L45+8
 1416 0134 4FF4FA71 		mov	r1, #500
 1417 0138 FFF7FEFF 		bl	_ZL9ToggleLEDRN5RODOS8HAL_GPIOEm
 299:../Task.cpp   **** 	AT(NOW() + 500 * MILLISECONDS);
 1418              		.loc 5 299 0
 1419 013c FFF7FEFF 		bl	_ZN5RODOS9TimeModel14getNanosecondsEv
 1420 0140 3DA3     		adr	r3, .L45
 1421 0142 D3E90023 		ldrd	r2, [r3]
 1422 0146 1218     		adds	r2, r2, r0
 1423 0148 43EB0103 		adc	r3, r3, r1
 1424 014c 1046     		mov	r0, r2
 1425 014e 1946     		mov	r1, r3
 1426 0150 4FF00002 		mov	r2, #0
 1427 0154 FFF7FEFF 		bl	_ZN5RODOS6Thread18suspendCallerUntilExPv
 300:../Task.cpp   **** 
 301:../Task.cpp   **** 	// Werte ausrechnen:
 302:../Task.cpp   **** 	Offset_G[0] = P2[0] / 100.0; // Offset x-Achse
 1428              		.loc 5 302 0
 1429 0158 D7E90823 		ldrd	r2, [r7, #32]
 1430 015c 1046     		mov	r0, r2
 1431 015e 1946     		mov	r1, r3
 1432 0160 FFF7FEFF 		bl	__aeabi_l2d
 1433 0164 0246     		mov	r2, r0
 1434 0166 0B46     		mov	r3, r1
 1435 0168 1046     		mov	r0, r2
 1436 016a 1946     		mov	r1, r3
 1437 016c 4FF00002 		mov	r2, #0
 1438 0170 4FF00003 		mov	r3, #0
 1439 0174 C4F25903 		movt	r3, 16473
 1440 0178 FFF7FEFF 		bl	__aeabi_ddiv
 1441 017c 0246     		mov	r2, r0
 1442 017e 0B46     		mov	r3, r1
 1443 0180 1046     		mov	r0, r2
 1444 0182 1946     		mov	r1, r3
 1445 0184 FFF7FEFF 		bl	__aeabi_d2iz
 1446 0188 0346     		mov	r3, r0
 1447 018a 9AB2     		uxth	r2, r3
 1448 018c 7B68     		ldr	r3, [r7, #4]
 1449 018e 1A80     		strh	r2, [r3, #0]	@ movhi
 303:../Task.cpp   **** 	Offset_G[1] = P3[1] / 100.0; // Offset y-Achse
 1450              		.loc 5 303 0
 1451 0190 D7E90423 		ldrd	r2, [r7, #16]
 1452 0194 1046     		mov	r0, r2
 1453 0196 1946     		mov	r1, r3
 1454 0198 FFF7FEFF 		bl	__aeabi_l2d
 1455 019c 0246     		mov	r2, r0
 1456 019e 0B46     		mov	r3, r1
 1457 01a0 1046     		mov	r0, r2
 1458 01a2 1946     		mov	r1, r3
 1459 01a4 4FF00002 		mov	r2, #0
 1460 01a8 4FF00003 		mov	r3, #0
 1461 01ac C4F25903 		movt	r3, 16473
 1462 01b0 FFF7FEFF 		bl	__aeabi_ddiv
 1463 01b4 0246     		mov	r2, r0
 1464 01b6 0B46     		mov	r3, r1
 1465 01b8 1046     		mov	r0, r2
 1466 01ba 1946     		mov	r1, r3
 1467 01bc FFF7FEFF 		bl	__aeabi_d2iz
 1468 01c0 0346     		mov	r3, r0
 1469 01c2 9AB2     		uxth	r2, r3
 1470 01c4 7B68     		ldr	r3, [r7, #4]
 1471 01c6 5A80     		strh	r2, [r3, #2]	@ movhi
 304:../Task.cpp   **** 	Offset_G[2] = P1[2] / 100.0; // Offset z-Achse
 1472              		.loc 5 304 0
 1473 01c8 D7E91223 		ldrd	r2, [r7, #72]
 1474 01cc 1046     		mov	r0, r2
 1475 01ce 1946     		mov	r1, r3
 1476 01d0 FFF7FEFF 		bl	__aeabi_l2d
 1477 01d4 0246     		mov	r2, r0
 1478 01d6 0B46     		mov	r3, r1
 1479 01d8 1046     		mov	r0, r2
 1480 01da 1946     		mov	r1, r3
 1481 01dc 4FF00002 		mov	r2, #0
 1482 01e0 4FF00003 		mov	r3, #0
 1483 01e4 C4F25903 		movt	r3, 16473
 1484 01e8 FFF7FEFF 		bl	__aeabi_ddiv
 1485 01ec 0246     		mov	r2, r0
 1486 01ee 0B46     		mov	r3, r1
 1487 01f0 1046     		mov	r0, r2
 1488 01f2 1946     		mov	r1, r3
 1489 01f4 FFF7FEFF 		bl	__aeabi_d2iz
 1490 01f8 0346     		mov	r3, r0
 1491 01fa 9AB2     		uxth	r2, r3
 1492 01fc 7B68     		ldr	r3, [r7, #4]
 1493 01fe 9A80     		strh	r2, [r3, #4]	@ movhi
 305:../Task.cpp   **** 
 306:../Task.cpp   **** 	// Abschluss signalisieren:
 307:../Task.cpp   **** 	ToggleLED(LED[3], 500);
 1494              		.loc 5 307 0
 1495 0200 0F48     		ldr	r0, .L45+8
 1496 0202 4FF4FA71 		mov	r1, #500
 1497 0206 FFF7FEFF 		bl	_ZL9ToggleLEDRN5RODOS8HAL_GPIOEm
 308:../Task.cpp   **** 	AT(NOW() + 500 * MILLISECONDS);
 1498              		.loc 5 308 0
 1499 020a FFF7FEFF 		bl	_ZN5RODOS9TimeModel14getNanosecondsEv
 1500 020e 0AA3     		adr	r3, .L45
 1501 0210 D3E90023 		ldrd	r2, [r3]
 1502 0214 1218     		adds	r2, r2, r0
 1503 0216 43EB0103 		adc	r3, r3, r1
 1504 021a 1046     		mov	r0, r2
 1505 021c 1946     		mov	r1, r3
 1506 021e 4FF00002 		mov	r2, #0
 1507 0222 FFF7FEFF 		bl	_ZN5RODOS6Thread18suspendCallerUntilExPv
 309:../Task.cpp   **** 	ToggleLED(LED[3], 500);
 1508              		.loc 5 309 0
 1509 0226 0648     		ldr	r0, .L45+8
 1510 0228 4FF4FA71 		mov	r1, #500
 1511 022c FFF7FEFF 		bl	_ZL9ToggleLEDRN5RODOS8HAL_GPIOEm
 1512              	.LBE13:
 310:../Task.cpp   **** }
 1513              		.loc 5 310 0
 1514 0230 07F15007 		add	r7, r7, #80
 1515 0234 BD46     		mov	sp, r7
 1516 0236 80BD     		pop	{r7, pc}
 1517              	.L46:
 1518              		.align	3
 1519              	.L45:
 1520 0238 0065CD1D 		.word	500000000
 1521 023c 00000000 		.word	0
 1522 0240 54000000 		.word	LED+84
 1523              		.cfi_endproc
 1524              	.LFE200:
 1526 0244 AFF30080 		.section	.text._ZL12calibrateMagRA3_A2_s,"ax",%progbits
 1527              		.align	2
 1528              		.thumb
 1529              		.thumb_func
 1531              	_ZL12calibrateMagRA3_A2_s:
 1532              	.LFB201:
 311:../Task.cpp   **** 
 312:../Task.cpp   **** // Kalibriert Magnetometer
 313:../Task.cpp   **** static void calibrateMag(int16_t (&Offset_M)[3][2]) {
 1533              		.loc 5 313 0
 1534              		.cfi_startproc
 1535              		@ args = 0, pretend = 0, frame = 32
 1536              		@ frame_needed = 1, uses_anonymous_args = 0
 1537 0000 B0B5     		push	{r4, r5, r7, lr}
 1538              	.LCFI54:
 1539              		.cfi_def_cfa_offset 16
 1540              		.cfi_offset 4, -16
 1541              		.cfi_offset 5, -12
 1542              		.cfi_offset 7, -8
 1543              		.cfi_offset 14, -4
 1544 0002 88B0     		sub	sp, sp, #32
 1545              	.LCFI55:
 1546              		.cfi_def_cfa_offset 48
 1547 0004 00AF     		add	r7, sp, #0
 1548              	.LCFI56:
 1549              		.cfi_def_cfa_register 7
 1550 0006 7860     		str	r0, [r7, #4]
 1551              	.LBB14:
 314:../Task.cpp   **** 	// Vorgehensweise:
 315:../Task.cpp   **** 	// erst z-, dann x-, zuletzt y-Achse kalibrieren!
 316:../Task.cpp   **** 	ToggleLED(LED[3], 500);
 1552              		.loc 5 316 0
 1553 0008 8B48     		ldr	r0, .L57+16
 1554 000a 4FF4FA71 		mov	r1, #500
 1555 000e FFF7FEFF 		bl	_ZL9ToggleLEDRN5RODOS8HAL_GPIOEm
 317:../Task.cpp   **** 
 318:../Task.cpp   **** 	int16_t M_c[2]; // speichert ber Kalibrierung den gemessenen Min- ([0]) und Maxwert ([1])
 319:../Task.cpp   **** 	int64_t time; // speichert die Zeit bei Beginn, sodass genau 2 Sekunden kalibriert werden kann
 320:../Task.cpp   **** 	// ######################################################
 321:../Task.cpp   **** 	time = NOW();
 1556              		.loc 5 321 0
 1557 0012 FFF7FEFF 		bl	_ZN5RODOS9TimeModel14getNanosecondsEv
 1558 0016 C7E90601 		strd	r0, [r7, #24]
 1559              	.L50:
 1560              	.LBB15:
 322:../Task.cpp   **** 	do {
 323:../Task.cpp   **** 		int16_t currVal; // immer der aktuell gemessene Wert
 324:../Task.cpp   **** 
 325:../Task.cpp   **** 		// Messung abrufen:
 326:../Task.cpp   **** 		readSensor2Bytes(currVal, LSM9DS1_M, OUT_Z_L_M);
 1561              		.loc 5 326 0
 1562 001a 07F11203 		add	r3, r7, #18
 1563 001e 1846     		mov	r0, r3
 1564 0020 4FF01E01 		mov	r1, #30
 1565 0024 4FF02C02 		mov	r2, #44
 1566 0028 FFF7FEFF 		bl	_ZL16readSensor2BytesRshh
 327:../Task.cpp   **** 
 328:../Task.cpp   **** 		// prfen ob der Wert gespeichert werden soll:
 329:../Task.cpp   **** 		if (currVal < M_c[0])
 1567              		.loc 5 329 0
 1568 002c BA8A     		ldrh	r2, [r7, #20]
 1569 002e 7B8A     		ldrh	r3, [r7, #18]
 1570 0030 12B2     		sxth	r2, r2
 1571 0032 1BB2     		sxth	r3, r3
 1572 0034 9A42     		cmp	r2, r3
 1573 0036 02DD     		ble	.L48
 330:../Task.cpp   **** 			M_c[0] = currVal;
 1574              		.loc 5 330 0
 1575 0038 7B8A     		ldrh	r3, [r7, #18]
 1576 003a BB82     		strh	r3, [r7, #20]	@ movhi
 1577 003c 07E0     		b	.L49
 1578              	.L48:
 331:../Task.cpp   **** 		else if (currVal > M_c[1])
 1579              		.loc 5 331 0
 1580 003e FA8A     		ldrh	r2, [r7, #22]
 1581 0040 7B8A     		ldrh	r3, [r7, #18]
 1582 0042 12B2     		sxth	r2, r2
 1583 0044 1BB2     		sxth	r3, r3
 1584 0046 9A42     		cmp	r2, r3
 1585 0048 01DA     		bge	.L49
 332:../Task.cpp   **** 			M_c[1] = currVal;
 1586              		.loc 5 332 0
 1587 004a 7B8A     		ldrh	r3, [r7, #18]
 1588 004c FB82     		strh	r3, [r7, #22]	@ movhi
 1589              	.L49:
 1590              	.LBE15:
 333:../Task.cpp   **** 
 334:../Task.cpp   **** 	} while (NOW()<= (time + 2 * SECONDS));
 1591              		.loc 5 334 0
 1592 004e FFF7FEFF 		bl	_ZN5RODOS9TimeModel14getNanosecondsEv
 1593 0052 0246     		mov	r2, r0
 1594 0054 0B46     		mov	r3, r1
 322:../Task.cpp   **** 	do {
 1595              		.loc 5 322 0
 1596 0056 D7E90645 		ldrd	r4, [r7, #24]
 1597 005a 73A1     		adr	r1, .L57
 1598 005c D1E90001 		ldrd	r0, [r1]
 1599 0060 0019     		adds	r0, r0, r4
 1600 0062 41EB0501 		adc	r1, r1, r5
 1601 0066 9042     		cmp	r0, r2
 1602 0068 71EB030C 		sbcs	ip, r1, r3
 1603 006c B4BF     		ite	lt
 1604 006e 0023     		movlt	r3, #0
 1605 0070 0123     		movge	r3, #1
 1606 0072 DBB2     		uxtb	r3, r3
 1607 0074 002B     		cmp	r3, #0
 1608 0076 D0D1     		bne	.L50
 335:../Task.cpp   **** 
 336:../Task.cpp   **** 	// In M_c befinden sich jetzt der Min/Max-Wert fr Z-Achse, diesen speichern:
 337:../Task.cpp   **** 	Offset_M[2][0] = M_c[0];
 1609              		.loc 5 337 0
 1610 0078 BA8A     		ldrh	r2, [r7, #20]
 1611 007a 7B68     		ldr	r3, [r7, #4]
 1612 007c 1A81     		strh	r2, [r3, #8]	@ movhi
 338:../Task.cpp   **** 	Offset_M[2][1] = M_c[1];
 1613              		.loc 5 338 0
 1614 007e FA8A     		ldrh	r2, [r7, #22]
 1615 0080 7B68     		ldr	r3, [r7, #4]
 1616 0082 5A81     		strh	r2, [r3, #10]	@ movhi
 339:../Task.cpp   **** 	// ######################################################
 340:../Task.cpp   **** 
 341:../Task.cpp   **** 	ToggleLED(LED[3], 500);
 1617              		.loc 5 341 0
 1618 0084 6C48     		ldr	r0, .L57+16
 1619 0086 4FF4FA71 		mov	r1, #500
 1620 008a FFF7FEFF 		bl	_ZL9ToggleLEDRN5RODOS8HAL_GPIOEm
 342:../Task.cpp   **** 	AT(NOW() + 500 * MILLISECONDS);
 1621              		.loc 5 342 0
 1622 008e FFF7FEFF 		bl	_ZN5RODOS9TimeModel14getNanosecondsEv
 1623 0092 67A3     		adr	r3, .L57+8
 1624 0094 D3E90023 		ldrd	r2, [r3]
 1625 0098 1218     		adds	r2, r2, r0
 1626 009a 43EB0103 		adc	r3, r3, r1
 1627 009e 1046     		mov	r0, r2
 1628 00a0 1946     		mov	r1, r3
 1629 00a2 4FF00002 		mov	r2, #0
 1630 00a6 FFF7FEFF 		bl	_ZN5RODOS6Thread18suspendCallerUntilExPv
 343:../Task.cpp   **** 	ToggleLED(LED[3], 500);
 1631              		.loc 5 343 0
 1632 00aa 6348     		ldr	r0, .L57+16
 1633 00ac 4FF4FA71 		mov	r1, #500
 1634 00b0 FFF7FEFF 		bl	_ZL9ToggleLEDRN5RODOS8HAL_GPIOEm
 344:../Task.cpp   **** 
 345:../Task.cpp   **** 	// ######################################################
 346:../Task.cpp   **** 	time = NOW();
 1635              		.loc 5 346 0
 1636 00b4 FFF7FEFF 		bl	_ZN5RODOS9TimeModel14getNanosecondsEv
 1637 00b8 C7E90601 		strd	r0, [r7, #24]
 1638              	.L53:
 1639              	.LBB16:
 347:../Task.cpp   **** 	do {
 348:../Task.cpp   **** 		int16_t currVal; // immer der aktuell gemessene Wert
 349:../Task.cpp   **** 
 350:../Task.cpp   **** 		// Messung abrufen:
 351:../Task.cpp   **** 		readSensor2Bytes(currVal, LSM9DS1_M, OUT_X_L_M);
 1640              		.loc 5 351 0
 1641 00bc 07F11003 		add	r3, r7, #16
 1642 00c0 1846     		mov	r0, r3
 1643 00c2 4FF01E01 		mov	r1, #30
 1644 00c6 4FF02802 		mov	r2, #40
 1645 00ca FFF7FEFF 		bl	_ZL16readSensor2BytesRshh
 352:../Task.cpp   **** 
 353:../Task.cpp   **** 		// prfen ob der Wert gespeichert werden soll:
 354:../Task.cpp   **** 		if (currVal < M_c[0])
 1646              		.loc 5 354 0
 1647 00ce BA8A     		ldrh	r2, [r7, #20]
 1648 00d0 3B8A     		ldrh	r3, [r7, #16]
 1649 00d2 12B2     		sxth	r2, r2
 1650 00d4 1BB2     		sxth	r3, r3
 1651 00d6 9A42     		cmp	r2, r3
 1652 00d8 02DD     		ble	.L51
 355:../Task.cpp   **** 			M_c[0] = currVal;
 1653              		.loc 5 355 0
 1654 00da 3B8A     		ldrh	r3, [r7, #16]
 1655 00dc BB82     		strh	r3, [r7, #20]	@ movhi
 1656 00de 07E0     		b	.L52
 1657              	.L51:
 356:../Task.cpp   **** 		else if (currVal > M_c[1])
 1658              		.loc 5 356 0
 1659 00e0 FA8A     		ldrh	r2, [r7, #22]
 1660 00e2 3B8A     		ldrh	r3, [r7, #16]
 1661 00e4 12B2     		sxth	r2, r2
 1662 00e6 1BB2     		sxth	r3, r3
 1663 00e8 9A42     		cmp	r2, r3
 1664 00ea 01DA     		bge	.L52
 357:../Task.cpp   **** 			M_c[1] = currVal;
 1665              		.loc 5 357 0
 1666 00ec 3B8A     		ldrh	r3, [r7, #16]
 1667 00ee FB82     		strh	r3, [r7, #22]	@ movhi
 1668              	.L52:
 1669              	.LBE16:
 358:../Task.cpp   **** 
 359:../Task.cpp   **** 	} while (NOW()<= (time + 2 * SECONDS));
 1670              		.loc 5 359 0
 1671 00f0 FFF7FEFF 		bl	_ZN5RODOS9TimeModel14getNanosecondsEv
 1672 00f4 0246     		mov	r2, r0
 1673 00f6 0B46     		mov	r3, r1
 347:../Task.cpp   **** 	do {
 1674              		.loc 5 347 0
 1675 00f8 D7E90645 		ldrd	r4, [r7, #24]
 1676 00fc 4AA1     		adr	r1, .L57
 1677 00fe D1E90001 		ldrd	r0, [r1]
 1678 0102 0019     		adds	r0, r0, r4
 1679 0104 41EB0501 		adc	r1, r1, r5
 1680 0108 9042     		cmp	r0, r2
 1681 010a 71EB030C 		sbcs	ip, r1, r3
 1682 010e B4BF     		ite	lt
 1683 0110 0023     		movlt	r3, #0
 1684 0112 0123     		movge	r3, #1
 1685 0114 DBB2     		uxtb	r3, r3
 1686 0116 002B     		cmp	r3, #0
 1687 0118 D0D1     		bne	.L53
 360:../Task.cpp   **** 
 361:../Task.cpp   **** 	// In M_c befinden sich jetzt der Min/Max-Wert fr X-Achse, diesen speichern:
 362:../Task.cpp   **** 	Offset_M[0][0] = M_c[0];
 1688              		.loc 5 362 0
 1689 011a BA8A     		ldrh	r2, [r7, #20]
 1690 011c 7B68     		ldr	r3, [r7, #4]
 1691 011e 1A80     		strh	r2, [r3, #0]	@ movhi
 363:../Task.cpp   **** 	Offset_M[0][1] = M_c[1];
 1692              		.loc 5 363 0
 1693 0120 FA8A     		ldrh	r2, [r7, #22]
 1694 0122 7B68     		ldr	r3, [r7, #4]
 1695 0124 5A80     		strh	r2, [r3, #2]	@ movhi
 364:../Task.cpp   **** 	// ######################################################
 365:../Task.cpp   **** 
 366:../Task.cpp   **** 	ToggleLED(LED[3], 500);
 1696              		.loc 5 366 0
 1697 0126 4448     		ldr	r0, .L57+16
 1698 0128 4FF4FA71 		mov	r1, #500
 1699 012c FFF7FEFF 		bl	_ZL9ToggleLEDRN5RODOS8HAL_GPIOEm
 367:../Task.cpp   **** 	AT(NOW() + 500 * MILLISECONDS);
 1700              		.loc 5 367 0
 1701 0130 FFF7FEFF 		bl	_ZN5RODOS9TimeModel14getNanosecondsEv
 1702 0134 3EA3     		adr	r3, .L57+8
 1703 0136 D3E90023 		ldrd	r2, [r3]
 1704 013a 1218     		adds	r2, r2, r0
 1705 013c 43EB0103 		adc	r3, r3, r1
 1706 0140 1046     		mov	r0, r2
 1707 0142 1946     		mov	r1, r3
 1708 0144 4FF00002 		mov	r2, #0
 1709 0148 FFF7FEFF 		bl	_ZN5RODOS6Thread18suspendCallerUntilExPv
 368:../Task.cpp   **** 	ToggleLED(LED[3], 500);
 1710              		.loc 5 368 0
 1711 014c 3A48     		ldr	r0, .L57+16
 1712 014e 4FF4FA71 		mov	r1, #500
 1713 0152 FFF7FEFF 		bl	_ZL9ToggleLEDRN5RODOS8HAL_GPIOEm
 369:../Task.cpp   **** 
 370:../Task.cpp   **** 	// ######################################################
 371:../Task.cpp   **** 	time = NOW();
 1714              		.loc 5 371 0
 1715 0156 FFF7FEFF 		bl	_ZN5RODOS9TimeModel14getNanosecondsEv
 1716 015a C7E90601 		strd	r0, [r7, #24]
 1717              	.L56:
 1718              	.LBB17:
 372:../Task.cpp   **** 	do {
 373:../Task.cpp   **** 		int16_t currVal; // immer der aktuell gemessene Wert
 374:../Task.cpp   **** 
 375:../Task.cpp   **** 		// Messung abrufen:
 376:../Task.cpp   **** 		readSensor2Bytes(currVal, LSM9DS1_M, OUT_Y_L_M);
 1719              		.loc 5 376 0
 1720 015e 07F10E03 		add	r3, r7, #14
 1721 0162 1846     		mov	r0, r3
 1722 0164 4FF01E01 		mov	r1, #30
 1723 0168 4FF02A02 		mov	r2, #42
 1724 016c FFF7FEFF 		bl	_ZL16readSensor2BytesRshh
 377:../Task.cpp   **** 
 378:../Task.cpp   **** 		// prfen ob der Wert gespeichert werden soll:
 379:../Task.cpp   **** 		if (currVal < M_c[0])
 1725              		.loc 5 379 0
 1726 0170 BA8A     		ldrh	r2, [r7, #20]
 1727 0172 FB89     		ldrh	r3, [r7, #14]
 1728 0174 12B2     		sxth	r2, r2
 1729 0176 1BB2     		sxth	r3, r3
 1730 0178 9A42     		cmp	r2, r3
 1731 017a 02DD     		ble	.L54
 380:../Task.cpp   **** 			M_c[0] = currVal;
 1732              		.loc 5 380 0
 1733 017c FB89     		ldrh	r3, [r7, #14]
 1734 017e BB82     		strh	r3, [r7, #20]	@ movhi
 1735 0180 07E0     		b	.L55
 1736              	.L54:
 381:../Task.cpp   **** 		else if (currVal > M_c[1])
 1737              		.loc 5 381 0
 1738 0182 FA8A     		ldrh	r2, [r7, #22]
 1739 0184 FB89     		ldrh	r3, [r7, #14]
 1740 0186 12B2     		sxth	r2, r2
 1741 0188 1BB2     		sxth	r3, r3
 1742 018a 9A42     		cmp	r2, r3
 1743 018c 01DA     		bge	.L55
 382:../Task.cpp   **** 			M_c[1] = currVal;
 1744              		.loc 5 382 0
 1745 018e FB89     		ldrh	r3, [r7, #14]
 1746 0190 FB82     		strh	r3, [r7, #22]	@ movhi
 1747              	.L55:
 1748              	.LBE17:
 383:../Task.cpp   **** 
 384:../Task.cpp   **** 	} while (NOW()<= (time + 2 * SECONDS));
 1749              		.loc 5 384 0
 1750 0192 FFF7FEFF 		bl	_ZN5RODOS9TimeModel14getNanosecondsEv
 1751 0196 0246     		mov	r2, r0
 1752 0198 0B46     		mov	r3, r1
 372:../Task.cpp   **** 	do {
 1753              		.loc 5 372 0
 1754 019a D7E90645 		ldrd	r4, [r7, #24]
 1755 019e 22A1     		adr	r1, .L57
 1756 01a0 D1E90001 		ldrd	r0, [r1]
 1757 01a4 0019     		adds	r0, r0, r4
 1758 01a6 41EB0501 		adc	r1, r1, r5
 1759 01aa 9042     		cmp	r0, r2
 1760 01ac 71EB030C 		sbcs	ip, r1, r3
 1761 01b0 B4BF     		ite	lt
 1762 01b2 0023     		movlt	r3, #0
 1763 01b4 0123     		movge	r3, #1
 1764 01b6 DBB2     		uxtb	r3, r3
 1765 01b8 002B     		cmp	r3, #0
 1766 01ba D0D1     		bne	.L56
 385:../Task.cpp   **** 
 386:../Task.cpp   **** 	// In M_c befinden sich jetzt der Min/Max-Wert fr Y-Achse, diesen speichern:
 387:../Task.cpp   **** 	Offset_M[1][0] = M_c[0];
 1767              		.loc 5 387 0
 1768 01bc BA8A     		ldrh	r2, [r7, #20]
 1769 01be 7B68     		ldr	r3, [r7, #4]
 1770 01c0 9A80     		strh	r2, [r3, #4]	@ movhi
 388:../Task.cpp   **** 	Offset_M[1][1] = M_c[1];
 1771              		.loc 5 388 0
 1772 01c2 FA8A     		ldrh	r2, [r7, #22]
 1773 01c4 7B68     		ldr	r3, [r7, #4]
 1774 01c6 DA80     		strh	r2, [r3, #6]	@ movhi
 389:../Task.cpp   **** 	// ######################################################
 390:../Task.cpp   **** 
 391:../Task.cpp   **** 	ToggleLED(LED[3], 500);
 1775              		.loc 5 391 0
 1776 01c8 1B48     		ldr	r0, .L57+16
 1777 01ca 4FF4FA71 		mov	r1, #500
 1778 01ce FFF7FEFF 		bl	_ZL9ToggleLEDRN5RODOS8HAL_GPIOEm
 392:../Task.cpp   **** 	AT(NOW() + 500 * MILLISECONDS);
 1779              		.loc 5 392 0
 1780 01d2 FFF7FEFF 		bl	_ZN5RODOS9TimeModel14getNanosecondsEv
 1781 01d6 16A3     		adr	r3, .L57+8
 1782 01d8 D3E90023 		ldrd	r2, [r3]
 1783 01dc 1218     		adds	r2, r2, r0
 1784 01de 43EB0103 		adc	r3, r3, r1
 1785 01e2 1046     		mov	r0, r2
 1786 01e4 1946     		mov	r1, r3
 1787 01e6 4FF00002 		mov	r2, #0
 1788 01ea FFF7FEFF 		bl	_ZN5RODOS6Thread18suspendCallerUntilExPv
 393:../Task.cpp   **** 
 394:../Task.cpp   **** 	// Abschluss signalisieren:
 395:../Task.cpp   **** 	ToggleLED(LED[3], 500);
 1789              		.loc 5 395 0
 1790 01ee 1248     		ldr	r0, .L57+16
 1791 01f0 4FF4FA71 		mov	r1, #500
 1792 01f4 FFF7FEFF 		bl	_ZL9ToggleLEDRN5RODOS8HAL_GPIOEm
 396:../Task.cpp   **** 	AT(NOW() + 500 * MILLISECONDS);
 1793              		.loc 5 396 0
 1794 01f8 FFF7FEFF 		bl	_ZN5RODOS9TimeModel14getNanosecondsEv
 1795 01fc 0CA3     		adr	r3, .L57+8
 1796 01fe D3E90023 		ldrd	r2, [r3]
 1797 0202 1218     		adds	r2, r2, r0
 1798 0204 43EB0103 		adc	r3, r3, r1
 1799 0208 1046     		mov	r0, r2
 1800 020a 1946     		mov	r1, r3
 1801 020c 4FF00002 		mov	r2, #0
 1802 0210 FFF7FEFF 		bl	_ZN5RODOS6Thread18suspendCallerUntilExPv
 397:../Task.cpp   **** 	ToggleLED(LED[3], 500);
 1803              		.loc 5 397 0
 1804 0214 0848     		ldr	r0, .L57+16
 1805 0216 4FF4FA71 		mov	r1, #500
 1806 021a FFF7FEFF 		bl	_ZL9ToggleLEDRN5RODOS8HAL_GPIOEm
 1807              	.LBE14:
 398:../Task.cpp   **** }
 1808              		.loc 5 398 0
 1809 021e 07F12007 		add	r7, r7, #32
 1810 0222 BD46     		mov	sp, r7
 1811 0224 B0BD     		pop	{r4, r5, r7, pc}
 1812              	.L58:
 1813 0226 00BF     		.align	3
 1814              	.L57:
 1815 0228 00943577 		.word	2000000000
 1816 022c 00000000 		.word	0
 1817 0230 0065CD1D 		.word	500000000
 1818 0234 00000000 		.word	0
 1819 0238 54000000 		.word	LED+84
 1820              		.cfi_endproc
 1821              	.LFE201:
 1823              		.global	__aeabi_f2d
 1824              		.global	__aeabi_d2f
 1825 023c AFF30080 		.section	.text._ZL10calcRP_AccRfS_fff,"ax",%progbits
 1826              		.align	2
 1827              		.thumb
 1828              		.thumb_func
 1830              	_ZL10calcRP_AccRfS_fff:
 1831              	.LFB202:
 399:../Task.cpp   **** 
 400:../Task.cpp   **** //*******************************************************************************
 401:../Task.cpp   **** 
 402:../Task.cpp   **** // Berechnet ber Daten des Accelerometer die Orientierung
 403:../Task.cpp   **** static void calcRP_Acc(float& pitch, float& roll, float x, float y, float z) {
 1832              		.loc 5 403 0
 1833              		.cfi_startproc
 1834              		@ args = 4, pretend = 0, frame = 16
 1835              		@ frame_needed = 1, uses_anonymous_args = 0
 1836 0000 B0B5     		push	{r4, r5, r7, lr}
 1837              	.LCFI57:
 1838              		.cfi_def_cfa_offset 16
 1839              		.cfi_offset 4, -16
 1840              		.cfi_offset 5, -12
 1841              		.cfi_offset 7, -8
 1842              		.cfi_offset 14, -4
 1843 0002 84B0     		sub	sp, sp, #16
 1844              	.LCFI58:
 1845              		.cfi_def_cfa_offset 32
 1846 0004 00AF     		add	r7, sp, #0
 1847              	.LCFI59:
 1848              		.cfi_def_cfa_register 7
 1849 0006 F860     		str	r0, [r7, #12]
 1850 0008 B960     		str	r1, [r7, #8]
 1851 000a 7A60     		str	r2, [r7, #4]	@ float
 1852 000c 3B60     		str	r3, [r7, #0]	@ float
 404:../Task.cpp   **** 	roll = atan2(y, z);
 1853              		.loc 5 404 0
 1854 000e 3868     		ldr	r0, [r7, #0]	@ float
 1855 0010 FFF7FEFF 		bl	__aeabi_f2d
 1856 0014 0446     		mov	r4, r0
 1857 0016 0D46     		mov	r5, r1
 1858 0018 386A     		ldr	r0, [r7, #32]	@ float
 1859 001a FFF7FEFF 		bl	__aeabi_f2d
 1860 001e 0246     		mov	r2, r0
 1861 0020 0B46     		mov	r3, r1
 1862 0022 2046     		mov	r0, r4
 1863 0024 2946     		mov	r1, r5
 1864 0026 FFF7FEFF 		bl	atan2
 1865 002a 0246     		mov	r2, r0
 1866 002c 0B46     		mov	r3, r1
 1867 002e 1046     		mov	r0, r2
 1868 0030 1946     		mov	r1, r3
 1869 0032 FFF7FEFF 		bl	__aeabi_d2f
 1870 0036 0246     		mov	r2, r0	@ float
 1871 0038 BB68     		ldr	r3, [r7, #8]
 1872 003a 1A60     		str	r2, [r3, #0]	@ float
 405:../Task.cpp   **** 	pitch = atan2(-x, sqrt(y * y + z * z));
 1873              		.loc 5 405 0
 1874 003c D7ED017A 		flds	s15, [r7, #4]
 1875 0040 F1EE677A 		fnegs	s15, s15
 1876 0044 17EE903A 		fmrs	r3, s15
 1877 0048 1846     		mov	r0, r3	@ float
 1878 004a FFF7FEFF 		bl	__aeabi_f2d
 1879 004e 0446     		mov	r4, r0
 1880 0050 0D46     		mov	r5, r1
 1881 0052 97ED007A 		flds	s14, [r7, #0]
 1882 0056 D7ED007A 		flds	s15, [r7, #0]
 1883 005a 27EE277A 		fmuls	s14, s14, s15
 1884 005e D7ED086A 		flds	s13, [r7, #32]
 1885 0062 D7ED087A 		flds	s15, [r7, #32]
 1886 0066 66EEA77A 		fmuls	s15, s13, s15
 1887 006a 77EE277A 		fadds	s15, s14, s15
 1888 006e 17EE900A 		fmrs	r0, s15
 1889 0072 FFF7FEFF 		bl	__aeabi_f2d
 1890 0076 0246     		mov	r2, r0
 1891 0078 0B46     		mov	r3, r1
 1892 007a 1046     		mov	r0, r2
 1893 007c 1946     		mov	r1, r3
 1894 007e FFF7FEFF 		bl	sqrt
 1895 0082 0246     		mov	r2, r0
 1896 0084 0B46     		mov	r3, r1
 1897 0086 2046     		mov	r0, r4
 1898 0088 2946     		mov	r1, r5
 1899 008a FFF7FEFF 		bl	atan2
 1900 008e 0246     		mov	r2, r0
 1901 0090 0B46     		mov	r3, r1
 1902 0092 1046     		mov	r0, r2
 1903 0094 1946     		mov	r1, r3
 1904 0096 FFF7FEFF 		bl	__aeabi_d2f
 1905 009a 0246     		mov	r2, r0	@ float
 1906 009c FB68     		ldr	r3, [r7, #12]
 1907 009e 1A60     		str	r2, [r3, #0]	@ float
 406:../Task.cpp   **** }
 1908              		.loc 5 406 0
 1909 00a0 07F11007 		add	r7, r7, #16
 1910 00a4 BD46     		mov	sp, r7
 1911 00a6 B0BD     		pop	{r4, r5, r7, pc}
 1912              		.cfi_endproc
 1913              	.LFE202:
 1915              		.section	.text._ZL9calcY_MagRffff,"ax",%progbits
 1916              		.align	2
 1917              		.thumb
 1918              		.thumb_func
 1920              	_ZL9calcY_MagRffff:
 1921              	.LFB203:
 407:../Task.cpp   **** 
 408:../Task.cpp   **** // Berechnet ber Daten des Gyrometer die Orientierung
 409:../Task.cpp   **** static void calcY_Mag(float& yaw, float mx, float my, float mz) {
 1922              		.loc 5 409 0
 1923              		.cfi_startproc
 1924              		@ args = 0, pretend = 0, frame = 16
 1925              		@ frame_needed = 1, uses_anonymous_args = 0
 1926 0000 B0B5     		push	{r4, r5, r7, lr}
 1927              	.LCFI60:
 1928              		.cfi_def_cfa_offset 16
 1929              		.cfi_offset 4, -16
 1930              		.cfi_offset 5, -12
 1931              		.cfi_offset 7, -8
 1932              		.cfi_offset 14, -4
 1933 0002 84B0     		sub	sp, sp, #16
 1934              	.LCFI61:
 1935              		.cfi_def_cfa_offset 32
 1936 0004 00AF     		add	r7, sp, #0
 1937              	.LCFI62:
 1938              		.cfi_def_cfa_register 7
 1939 0006 F860     		str	r0, [r7, #12]
 1940 0008 B960     		str	r1, [r7, #8]	@ float
 1941 000a 7A60     		str	r2, [r7, #4]	@ float
 1942 000c 3B60     		str	r3, [r7, #0]	@ float
 410:../Task.cpp   **** 	yaw = atan2(my, mx);
 1943              		.loc 5 410 0
 1944 000e 7868     		ldr	r0, [r7, #4]	@ float
 1945 0010 FFF7FEFF 		bl	__aeabi_f2d
 1946 0014 0446     		mov	r4, r0
 1947 0016 0D46     		mov	r5, r1
 1948 0018 B868     		ldr	r0, [r7, #8]	@ float
 1949 001a FFF7FEFF 		bl	__aeabi_f2d
 1950 001e 0246     		mov	r2, r0
 1951 0020 0B46     		mov	r3, r1
 1952 0022 2046     		mov	r0, r4
 1953 0024 2946     		mov	r1, r5
 1954 0026 FFF7FEFF 		bl	atan2
 1955 002a 0246     		mov	r2, r0
 1956 002c 0B46     		mov	r3, r1
 1957 002e 1046     		mov	r0, r2
 1958 0030 1946     		mov	r1, r3
 1959 0032 FFF7FEFF 		bl	__aeabi_d2f
 1960 0036 0246     		mov	r2, r0	@ float
 1961 0038 FB68     		ldr	r3, [r7, #12]
 1962 003a 1A60     		str	r2, [r3, #0]	@ float
 411:../Task.cpp   **** }
 1963              		.loc 5 411 0
 1964 003c 07F11007 		add	r7, r7, #16
 1965 0040 BD46     		mov	sp, r7
 1966 0042 B0BD     		pop	{r4, r5, r7, pc}
 1967              		.cfi_endproc
 1968              	.LFE203:
 1970              		.global	__aeabi_dmul
 1971              		.global	__aeabi_dadd
 1972              		.section	.text._ZL7calcYawf,"ax",%progbits
 1973              		.align	2
 1974              		.thumb
 1975              		.thumb_func
 1977              	_ZL7calcYawf:
 1978              	.LFB204:
 412:../Task.cpp   **** 
 413:../Task.cpp   **** static float calcYaw(float gz) {
 1979              		.loc 5 413 0
 1980              		.cfi_startproc
 1981              		@ args = 0, pretend = 0, frame = 8
 1982              		@ frame_needed = 1, uses_anonymous_args = 0
 1983 0000 B0B5     		push	{r4, r5, r7, lr}
 1984              	.LCFI63:
 1985              		.cfi_def_cfa_offset 16
 1986              		.cfi_offset 4, -16
 1987              		.cfi_offset 5, -12
 1988              		.cfi_offset 7, -8
 1989              		.cfi_offset 14, -4
 1990 0002 82B0     		sub	sp, sp, #8
 1991              	.LCFI64:
 1992              		.cfi_def_cfa_offset 24
 1993 0004 00AF     		add	r7, sp, #0
 1994              	.LCFI65:
 1995              		.cfi_def_cfa_register 7
 1996 0006 7860     		str	r0, [r7, #4]	@ float
 1997              	.LBB18:
 414:../Task.cpp   **** 	static float yaw;
 415:../Task.cpp   **** 	return (yaw += gz * 0.05);
 1998              		.loc 5 415 0
 1999 0008 40F20003 		movw	r3, #:lower16:_ZZL7calcYawfE3yaw
 2000 000c C0F20003 		movt	r3, #:upper16:_ZZL7calcYawfE3yaw
 2001 0010 1B68     		ldr	r3, [r3, #0]	@ float
 2002 0012 1846     		mov	r0, r3	@ float
 2003 0014 FFF7FEFF 		bl	__aeabi_f2d
 2004 0018 0446     		mov	r4, r0
 2005 001a 0D46     		mov	r5, r1
 2006 001c 7868     		ldr	r0, [r7, #4]	@ float
 2007 001e FFF7FEFF 		bl	__aeabi_f2d
 2008 0022 0246     		mov	r2, r0
 2009 0024 0B46     		mov	r3, r1
 2010 0026 1046     		mov	r0, r2
 2011 0028 1946     		mov	r1, r3
 2012 002a 11A3     		adr	r3, .L63
 2013 002c D3E90023 		ldrd	r2, [r3]
 2014 0030 FFF7FEFF 		bl	__aeabi_dmul
 2015 0034 0246     		mov	r2, r0
 2016 0036 0B46     		mov	r3, r1
 2017 0038 2046     		mov	r0, r4
 2018 003a 2946     		mov	r1, r5
 2019 003c FFF7FEFF 		bl	__aeabi_dadd
 2020 0040 0246     		mov	r2, r0
 2021 0042 0B46     		mov	r3, r1
 2022 0044 1046     		mov	r0, r2
 2023 0046 1946     		mov	r1, r3
 2024 0048 FFF7FEFF 		bl	__aeabi_d2f
 2025 004c 0246     		mov	r2, r0	@ float
 2026 004e 40F20003 		movw	r3, #:lower16:_ZZL7calcYawfE3yaw
 2027 0052 C0F20003 		movt	r3, #:upper16:_ZZL7calcYawfE3yaw
 2028 0056 1A60     		str	r2, [r3, #0]	@ float
 2029 0058 40F20003 		movw	r3, #:lower16:_ZZL7calcYawfE3yaw
 2030 005c C0F20003 		movt	r3, #:upper16:_ZZL7calcYawfE3yaw
 2031 0060 1B68     		ldr	r3, [r3, #0]	@ float
 2032              	.LBE18:
 416:../Task.cpp   **** }
 2033              		.loc 5 416 0
 2034 0062 1846     		mov	r0, r3	@ float
 2035 0064 07F10807 		add	r7, r7, #8
 2036 0068 BD46     		mov	sp, r7
 2037 006a B0BD     		pop	{r4, r5, r7, pc}
 2038              	.L64:
 2039 006c AFF30080 		.align	3
 2040              	.L63:
 2041 0070 9A999999 		.word	-1717986918
 2042 0074 9999A93F 		.word	1068079513
 2043              		.cfi_endproc
 2044              	.LFE204:
 2046              		.section	.text._ZN5RODOS18SubscriberReceiverI7CommandED2Ev,"axG",%progbits,_ZN5RODOS18SubscriberRe
 2047              		.align	2
 2048              		.weak	_ZN5RODOS18SubscriberReceiverI7CommandED2Ev
 2049              		.thumb
 2050              		.thumb_func
 2052              	_ZN5RODOS18SubscriberReceiverI7CommandED2Ev:
 2053              	.LFB207:
 148:/home/rodos/Discovery_WorkSpace_Updated/rodos/api/subscriber.h **** 
 149:/home/rodos/Discovery_WorkSpace_Updated/rodos/api/subscriber.h ****     /** returns true if InputPort is enabled and wants to receive messages for
 150:/home/rodos/Discovery_WorkSpace_Updated/rodos/api/subscriber.h ****     *   given topicId
 151:/home/rodos/Discovery_WorkSpace_Updated/rodos/api/subscriber.h ****     */
 152:/home/rodos/Discovery_WorkSpace_Updated/rodos/api/subscriber.h ****     // virtual bool wants(const long topicId) const;
 153:/home/rodos/Discovery_WorkSpace_Updated/rodos/api/subscriber.h **** 
 154:/home/rodos/Discovery_WorkSpace_Updated/rodos/api/subscriber.h ****     /**
 155:/home/rodos/Discovery_WorkSpace_Updated/rodos/api/subscriber.h ****      * @return enabled == true -> receive all messages to the given ServiceId,
 156:/home/rodos/Discovery_WorkSpace_Updated/rodos/api/subscriber.h ****     *    else ignore them
 157:/home/rodos/Discovery_WorkSpace_Updated/rodos/api/subscriber.h ****     */
 158:/home/rodos/Discovery_WorkSpace_Updated/rodos/api/subscriber.h ****     void enable(bool onOff = true);
 159:/home/rodos/Discovery_WorkSpace_Updated/rodos/api/subscriber.h **** 
 160:/home/rodos/Discovery_WorkSpace_Updated/rodos/api/subscriber.h ****     /** Check whether the current subscriber is a gateway,
 161:/home/rodos/Discovery_WorkSpace_Updated/rodos/api/subscriber.h ****      * hence connects to the network.
 162:/home/rodos/Discovery_WorkSpace_Updated/rodos/api/subscriber.h ****      * @return if true -> message is sent to the network, false -> is send locally
 163:/home/rodos/Discovery_WorkSpace_Updated/rodos/api/subscriber.h ****      */
 164:/home/rodos/Discovery_WorkSpace_Updated/rodos/api/subscriber.h ****     bool isGateway() const;
 165:/home/rodos/Discovery_WorkSpace_Updated/rodos/api/subscriber.h **** 
 166:/home/rodos/Discovery_WorkSpace_Updated/rodos/api/subscriber.h **** };
 167:/home/rodos/Discovery_WorkSpace_Updated/rodos/api/subscriber.h **** 
 168:/home/rodos/Discovery_WorkSpace_Updated/rodos/api/subscriber.h **** 
 169:/home/rodos/Discovery_WorkSpace_Updated/rodos/api/subscriber.h **** /** Simple Subscriver interface for userd ************/
 170:/home/rodos/Discovery_WorkSpace_Updated/rodos/api/subscriber.h **** 
 171:/home/rodos/Discovery_WorkSpace_Updated/rodos/api/subscriber.h **** template <class Type>
 172:/home/rodos/Discovery_WorkSpace_Updated/rodos/api/subscriber.h **** class SubscriberReceiver : public Subscriber {
 2054              		.loc 3 172 0
 2055              		.cfi_startproc
 2056              		@ args = 0, pretend = 0, frame = 8
 2057              		@ frame_needed = 1, uses_anonymous_args = 0
 2058 0000 80B5     		push	{r7, lr}
 2059              	.LCFI66:
 2060              		.cfi_def_cfa_offset 8
 2061              		.cfi_offset 7, -8
 2062              		.cfi_offset 14, -4
 2063 0002 82B0     		sub	sp, sp, #8
 2064              	.LCFI67:
 2065              		.cfi_def_cfa_offset 16
 2066 0004 00AF     		add	r7, sp, #0
 2067              	.LCFI68:
 2068              		.cfi_def_cfa_register 7
 2069 0006 7860     		str	r0, [r7, #4]
 2070              	.LBB19:
 2071              		.loc 3 172 0
 2072 0008 7B68     		ldr	r3, [r7, #4]
 2073 000a 0A4A     		ldr	r2, .L69
 2074 000c 1A60     		str	r2, [r3, #0]
 2075 000e 7B68     		ldr	r3, [r7, #4]
 2076 0010 1846     		mov	r0, r3
 2077 0012 FFF7FEFF 		bl	_ZN5RODOS10SubscriberD2Ev
 2078              	.LBE19:
 2079 0016 4FF00003 		mov	r3, #0
 2080 001a 03F00103 		and	r3, r3, #1
 2081 001e 002B     		cmp	r3, #0
 2082 0020 02D0     		beq	.L67
 2083              		.loc 3 172 0 is_stmt 0 discriminator 2
 2084 0022 7868     		ldr	r0, [r7, #4]
 2085 0024 FFF7FEFF 		bl	_ZdlPv
 2086              	.L67:
 2087              		.loc 3 172 0 discriminator 3
 2088 0028 7B68     		ldr	r3, [r7, #4]
 2089 002a 1846     		mov	r0, r3
 2090 002c 07F10807 		add	r7, r7, #8
 2091 0030 BD46     		mov	sp, r7
 2092 0032 80BD     		pop	{r7, pc}
 2093              	.L70:
 2094              		.align	2
 2095              	.L69:
 2096 0034 08000000 		.word	_ZTVN5RODOS18SubscriberReceiverI7CommandEE+8
 2097              		.cfi_endproc
 2098              	.LFE207:
 2100              		.weak	_ZN5RODOS18SubscriberReceiverI7CommandED1Ev
 2101              		.thumb_set _ZN5RODOS18SubscriberReceiverI7CommandED1Ev,_ZN5RODOS18SubscriberReceiverI7CommandED2Ev
 2102              		.section	.text._ZN5RODOS18SubscriberReceiverI7CommandED0Ev,"axG",%progbits,_ZN5RODOS18SubscriberRe
 2103              		.align	2
 2104              		.weak	_ZN5RODOS18SubscriberReceiverI7CommandED0Ev
 2105              		.thumb
 2106              		.thumb_func
 2108              	_ZN5RODOS18SubscriberReceiverI7CommandED0Ev:
 2109              	.LFB209:
 2110              		.loc 3 172 0 is_stmt 1
 2111              		.cfi_startproc
 2112              		@ args = 0, pretend = 0, frame = 8
 2113              		@ frame_needed = 1, uses_anonymous_args = 0
 2114 0000 80B5     		push	{r7, lr}
 2115              	.LCFI69:
 2116              		.cfi_def_cfa_offset 8
 2117              		.cfi_offset 7, -8
 2118              		.cfi_offset 14, -4
 2119 0002 82B0     		sub	sp, sp, #8
 2120              	.LCFI70:
 2121              		.cfi_def_cfa_offset 16
 2122 0004 00AF     		add	r7, sp, #0
 2123              	.LCFI71:
 2124              		.cfi_def_cfa_register 7
 2125 0006 7860     		str	r0, [r7, #4]
 2126              		.loc 3 172 0
 2127 0008 7868     		ldr	r0, [r7, #4]
 2128 000a FFF7FEFF 		bl	_ZN5RODOS18SubscriberReceiverI7CommandED1Ev
 2129 000e 7868     		ldr	r0, [r7, #4]
 2130 0010 FFF7FEFF 		bl	_ZdlPv
 2131 0014 7B68     		ldr	r3, [r7, #4]
 2132 0016 1846     		mov	r0, r3
 2133 0018 07F10807 		add	r7, r7, #8
 2134 001c BD46     		mov	sp, r7
 2135 001e 80BD     		pop	{r7, pc}
 2136              		.cfi_endproc
 2137              	.LFE209:
 2139              		.section	.rodata
 2140              		.align	2
 2141              	.LC7:
 2142 00bc 416E6F6E 		.ascii	"AnonymThread\000"
 2142      796D5468 
 2142      72656164 
 2142      00
 2143 00c9 000000   		.align	2
 2144              	.LC8:
 2145 00cc 546F7069 		.ascii	"TopicIntervalSignalProcessingReceiver\000"
 2145      63496E74 
 2145      65727661 
 2145      6C536967 
 2145      6E616C50 
 2146              		.section	.text._ZN16SignalProcessingC2Ev,"axG",%progbits,_ZN16SignalProcessingC5Ev,comdat
 2147              		.align	2
 2148              		.weak	_ZN16SignalProcessingC2Ev
 2149              		.thumb
 2150              		.thumb_func
 2152              	_ZN16SignalProcessingC2Ev:
 2153              	.LFB210:
 417:../Task.cpp   **** 
 418:../Task.cpp   **** //*******************************************************************************
 419:../Task.cpp   **** 
 420:../Task.cpp   **** class SignalProcessing: public Thread, public SubscriberReceiver<Command> {
 421:../Task.cpp   **** 	uint interval; // Standard: 50 ms
 422:../Task.cpp   **** 
 423:../Task.cpp   **** 	// Accelerometer
 424:../Task.cpp   **** 	int16_t Offset_A[3]; // Offset Beschleunigungssensor
 425:../Task.cpp   **** 	int16_t Value_A[3]; // Speichert zuletzt gemessene Beschleunigungsdaten pro Achse
 426:../Task.cpp   **** 	// Gyroscope
 427:../Task.cpp   **** 	int16_t Offset_G[3]; // Offset Gyroskop
 428:../Task.cpp   **** 	int16_t Value_G[3]; // Speichert zuletzt gemessene Daten des Gyroskops pro Achse
 429:../Task.cpp   **** 	// Magnetometer
 430:../Task.cpp   **** 	int16_t Offset_M[3][2]; // zwei Werte fr jede Achse: Min[0]/Max[1] Wert der Kalibrierung!
 431:../Task.cpp   **** 	int16_t Value_M[3]; // Speichert zuletzt gemessene Daten des Magnetometers pro Achse
 432:../Task.cpp   **** 
 433:../Task.cpp   **** 	float Value_Temp; // Speichert zuletzt gemessene Temperatur, ausnahmsweise in Float und nicht Ganz
 434:../Task.cpp   **** 
 435:../Task.cpp   **** 	bool calibration_complete; // legt fest ob Kalibrierung der IMU erfolgt ist
 436:../Task.cpp   **** 
 437:../Task.cpp   **** public:
 438:../Task.cpp   **** 	SignalProcessing() :
 2154              		.loc 5 438 0
 2155              		.cfi_startproc
 2156              		@ args = 0, pretend = 0, frame = 8
 2157              		@ frame_needed = 1, uses_anonymous_args = 0
 2158 0000 80B5     		push	{r7, lr}
 2159              	.LCFI72:
 2160              		.cfi_def_cfa_offset 8
 2161              		.cfi_offset 7, -8
 2162              		.cfi_offset 14, -4
 2163 0002 82B0     		sub	sp, sp, #8
 2164              	.LCFI73:
 2165              		.cfi_def_cfa_offset 16
 2166 0004 00AF     		add	r7, sp, #0
 2167              	.LCFI74:
 2168              		.cfi_def_cfa_register 7
 2169 0006 7860     		str	r0, [r7, #4]
 2170              	.LBB20:
 439:../Task.cpp   **** 			SubscriberReceiver<Command>(TopicTelemetry,
 440:../Task.cpp   **** 					"TopicIntervalSignalProcessingReceiver"), interval(100) { // abonniert Interval-Topic
 2171              		.loc 5 440 0
 2172 0008 7B68     		ldr	r3, [r7, #4]
 2173 000a 1846     		mov	r0, r3
 2174 000c 40F20001 		movw	r1, #:lower16:.LC7
 2175 0010 C0F20001 		movt	r1, #:upper16:.LC7
 2176 0014 4FF06402 		mov	r2, #100
 2177 0018 4FF4FA63 		mov	r3, #2000
 2178 001c FFF7FEFF 		bl	_ZN5RODOS6ThreadC2EPKcll
 2179 0020 7B68     		ldr	r3, [r7, #4]
 2180 0022 03F15003 		add	r3, r3, #80
 2181 0026 1846     		mov	r0, r3
 2182 0028 40F20001 		movw	r1, #:lower16:TopicTelemetry
 2183 002c C0F20001 		movt	r1, #:upper16:TopicTelemetry
 2184 0030 40F20002 		movw	r2, #:lower16:.LC8
 2185 0034 C0F20002 		movt	r2, #:upper16:.LC8
 2186 0038 FFF7FEFF 		bl	_ZN5RODOS18SubscriberReceiverI7CommandEC2ERNS_14TopicInterfaceEPKc
 2187 003c 7B68     		ldr	r3, [r7, #4]
 2188 003e 0A4A     		ldr	r2, .L77
 2189 0040 1A60     		str	r2, [r3, #0]
 2190 0042 7B68     		ldr	r3, [r7, #4]
 2191 0044 094A     		ldr	r2, .L77+4
 2192 0046 1A65     		str	r2, [r3, #80]
 2193 0048 7B68     		ldr	r3, [r7, #4]
 2194 004a 4FF06402 		mov	r2, #100
 2195 004e C3F88420 		str	r2, [r3, #132]
 441:../Task.cpp   **** 		 // Standart: 100 ms
 442:../Task.cpp   **** 		calibration_complete = false;
 2196              		.loc 5 442 0
 2197 0052 7B68     		ldr	r3, [r7, #4]
 2198 0054 4FF00002 		mov	r2, #0
 2199 0058 83F8B820 		strb	r2, [r3, #184]
 2200              	.LBE20:
 443:../Task.cpp   **** 	}
 2201              		.loc 5 443 0
 2202 005c 7B68     		ldr	r3, [r7, #4]
 2203 005e 1846     		mov	r0, r3
 2204 0060 07F10807 		add	r7, r7, #8
 2205 0064 BD46     		mov	sp, r7
 2206 0066 80BD     		pop	{r7, pc}
 2207              	.L78:
 2208              		.align	2
 2209              	.L77:
 2210 0068 08000000 		.word	_ZTV16SignalProcessing+8
 2211 006c 24000000 		.word	_ZTV16SignalProcessing+36
 2212              		.cfi_endproc
 2213              	.LFE210:
 2215              		.weak	_ZN16SignalProcessingC1Ev
 2216              		.thumb_set _ZN16SignalProcessingC1Ev,_ZN16SignalProcessingC2Ev
 2217              		.section	.text._ZN16SignalProcessing12isCalibratedEv,"axG",%progbits,_ZN16SignalProcessing12isCali
 2218              		.align	2
 2219              		.weak	_ZN16SignalProcessing12isCalibratedEv
 2220              		.thumb
 2221              		.thumb_func
 2223              	_ZN16SignalProcessing12isCalibratedEv:
 2224              	.LFB212:
 444:../Task.cpp   **** 
 445:../Task.cpp   **** 	bool isCalibrated() {
 2225              		.loc 5 445 0
 2226              		.cfi_startproc
 2227              		@ args = 0, pretend = 0, frame = 8
 2228              		@ frame_needed = 1, uses_anonymous_args = 0
 2229              		@ link register save eliminated.
 2230 0000 80B4     		push	{r7}
 2231              	.LCFI75:
 2232              		.cfi_def_cfa_offset 4
 2233              		.cfi_offset 7, -4
 2234 0002 83B0     		sub	sp, sp, #12
 2235              	.LCFI76:
 2236              		.cfi_def_cfa_offset 16
 2237 0004 00AF     		add	r7, sp, #0
 2238              	.LCFI77:
 2239              		.cfi_def_cfa_register 7
 2240 0006 7860     		str	r0, [r7, #4]
 446:../Task.cpp   **** 		return this->calibration_complete;
 2241              		.loc 5 446 0
 2242 0008 7B68     		ldr	r3, [r7, #4]
 2243 000a 93F8B830 		ldrb	r3, [r3, #184]	@ zero_extendqisi2
 447:../Task.cpp   **** 	}
 2244              		.loc 5 447 0
 2245 000e 1846     		mov	r0, r3
 2246 0010 07F10C07 		add	r7, r7, #12
 2247 0014 BD46     		mov	sp, r7
 2248 0016 80BC     		pop	{r7}
 2249 0018 7047     		bx	lr
 2250              		.cfi_endproc
 2251              	.LFE212:
 2253 001a 00BF     		.section	.rodata
 2254 00f2 0000     		.align	2
 2255              	.LC9:
 2256 00f4 496E6974 		.ascii	"Initialisierung Beschleunigungssensor und Gyroskop "
 2256      69616C69 
 2256      73696572 
 2256      756E6720 
 2256      42657363 
 2257 0127 61626765 		.ascii	"abgeschlossen...\000"
 2257      7363686C 
 2257      6F737365 
 2257      6E2E2E2E 
 2257      00
 2258              		.align	2
 2259              	.LC10:
 2260 0138 496E6974 		.ascii	"Initialisierung Magnetometer abgeschlossen...\000"
 2260      69616C69 
 2260      73696572 
 2260      756E6720 
 2260      4D61676E 
 2261              		.section	.text._ZN16SignalProcessing4initEv,"axG",%progbits,_ZN16SignalProcessing4initEv,comdat
 2262              		.align	2
 2263              		.weak	_ZN16SignalProcessing4initEv
 2264              		.thumb
 2265              		.thumb_func
 2267              	_ZN16SignalProcessing4initEv:
 2268              	.LFB213:
 448:../Task.cpp   **** 
 449:../Task.cpp   **** 	void init(void) {
 2269              		.loc 5 449 0
 2270              		.cfi_startproc
 2271              		@ args = 0, pretend = 0, frame = 8
 2272              		@ frame_needed = 1, uses_anonymous_args = 0
 2273 0000 80B5     		push	{r7, lr}
 2274              	.LCFI78:
 2275              		.cfi_def_cfa_offset 8
 2276              		.cfi_offset 7, -8
 2277              		.cfi_offset 14, -4
 2278 0002 82B0     		sub	sp, sp, #8
 2279              	.LCFI79:
 2280              		.cfi_def_cfa_offset 16
 2281 0004 00AF     		add	r7, sp, #0
 2282              	.LCFI80:
 2283              		.cfi_def_cfa_register 7
 2284 0006 7860     		str	r0, [r7, #4]
 450:../Task.cpp   **** 		// zugehrige LEDs auf Ausgang schalten:
 451:../Task.cpp   **** 		LED[0].init(1, 1, 1); // Aufgabenstellung (grn)
 2285              		.loc 5 451 0
 2286 0008 40F20000 		movw	r0, #:lower16:LED
 2287 000c C0F20000 		movt	r0, #:upper16:LED
 2288 0010 4FF00101 		mov	r1, #1
 2289 0014 4FF00102 		mov	r2, #1
 2290 0018 4FF00103 		mov	r3, #1
 2291 001c FFF7FEFF 		bl	_ZN5RODOS8HAL_GPIO4initEbmm
 452:../Task.cpp   **** 		LED[3].init(1, 1, 1); // Kalibrierung (blau)
 2292              		.loc 5 452 0
 2293 0020 3F48     		ldr	r0, .L82
 2294 0022 4FF00101 		mov	r1, #1
 2295 0026 4FF00102 		mov	r2, #1
 2296 002a 4FF00103 		mov	r3, #1
 2297 002e FFF7FEFF 		bl	_ZN5RODOS8HAL_GPIO4initEbmm
 453:../Task.cpp   **** 
 454:../Task.cpp   **** 		// Button auf Eingang schalten:
 455:../Task.cpp   **** 		button.init();
 2298              		.loc 5 455 0
 2299 0032 40F20000 		movw	r0, #:lower16:button
 2300 0036 C0F20000 		movt	r0, #:upper16:button
 2301 003a 4FF00001 		mov	r1, #0
 2302 003e 4FF00102 		mov	r2, #1
 2303 0042 4FF00003 		mov	r3, #0
 2304 0046 FFF7FEFF 		bl	_ZN5RODOS8HAL_GPIO4initEbmm
 456:../Task.cpp   **** 
 457:../Task.cpp   **** 		// IMU initialisieren:
 458:../Task.cpp   **** 		IMU.init(400000);
 2305              		.loc 5 458 0
 2306 004a 40F20000 		movw	r0, #:lower16:IMU
 2307 004e C0F20000 		movt	r0, #:upper16:IMU
 2308 0052 4FF4D451 		mov	r1, #6784
 2309 0056 C0F20601 		movt	r1, 6
 2310 005a FFF7FEFF 		bl	_ZN5RODOS7HAL_I2C4initEm
 459:../Task.cpp   **** 
 460:../Task.cpp   **** 		// Initialisieren: Beschleunigungssensor & Gyroskop:
 461:../Task.cpp   **** 		initAG(IMU);
 2311              		.loc 5 461 0
 2312 005e 40F20000 		movw	r0, #:lower16:IMU
 2313 0062 C0F20000 		movt	r0, #:upper16:IMU
 2314 0066 FFF7FEFF 		bl	_ZL6initAGRN5RODOS7HAL_I2CE
 462:../Task.cpp   **** 		writeUART(BT2UART,
 463:../Task.cpp   **** 				"Initialisierung Beschleunigungssensor und Gyroskop abgeschlossen...");
 2315              		.loc 5 463 0
 2316 006a 40F20000 		movw	r0, #:lower16:BT2UART
 2317 006e C0F20000 		movt	r0, #:upper16:BT2UART
 2318 0072 40F20001 		movw	r1, #:lower16:.LC9
 2319 0076 C0F20001 		movt	r1, #:upper16:.LC9
 2320 007a FFF7FEFF 		bl	_ZL9writeUARTRN5RODOS8HAL_UARTEPKc
 464:../Task.cpp   **** 
 465:../Task.cpp   **** 		// Initialisieren: Magnetometer:
 466:../Task.cpp   **** 		initM(IMU);
 2321              		.loc 5 466 0
 2322 007e 40F20000 		movw	r0, #:lower16:IMU
 2323 0082 C0F20000 		movt	r0, #:upper16:IMU
 2324 0086 FFF7FEFF 		bl	_ZL5initMRN5RODOS7HAL_I2CE
 467:../Task.cpp   **** 		writeUART(BT2UART, "Initialisierung Magnetometer abgeschlossen...");
 2325              		.loc 5 467 0
 2326 008a 40F20000 		movw	r0, #:lower16:BT2UART
 2327 008e C0F20000 		movt	r0, #:upper16:BT2UART
 2328 0092 40F20001 		movw	r1, #:lower16:.LC10
 2329 0096 C0F20001 		movt	r1, #:upper16:.LC10
 2330 009a FFF7FEFF 		bl	_ZL9writeUARTRN5RODOS8HAL_UARTEPKc
 468:../Task.cpp   **** 
 469:../Task.cpp   **** 		// ALLE Variablen mit Null initialisieren:
 470:../Task.cpp   **** 		Offset_A[0] = 0;
 2331              		.loc 5 470 0
 2332 009e 7B68     		ldr	r3, [r7, #4]
 2333 00a0 4FF00002 		mov	r2, #0
 2334 00a4 A3F88820 		strh	r2, [r3, #136]	@ movhi
 471:../Task.cpp   **** 		Offset_A[1] = 0;
 2335              		.loc 5 471 0
 2336 00a8 7B68     		ldr	r3, [r7, #4]
 2337 00aa 4FF00002 		mov	r2, #0
 2338 00ae A3F88A20 		strh	r2, [r3, #138]	@ movhi
 472:../Task.cpp   **** 		Offset_A[2] = 0;
 2339              		.loc 5 472 0
 2340 00b2 7B68     		ldr	r3, [r7, #4]
 2341 00b4 4FF00002 		mov	r2, #0
 2342 00b8 A3F88C20 		strh	r2, [r3, #140]	@ movhi
 473:../Task.cpp   **** 
 474:../Task.cpp   **** 		Offset_M[0][0] = 0;
 2343              		.loc 5 474 0
 2344 00bc 7B68     		ldr	r3, [r7, #4]
 2345 00be 4FF00002 		mov	r2, #0
 2346 00c2 A3F8A020 		strh	r2, [r3, #160]	@ movhi
 475:../Task.cpp   **** 		Offset_M[0][1] = 0;
 2347              		.loc 5 475 0
 2348 00c6 7B68     		ldr	r3, [r7, #4]
 2349 00c8 4FF00002 		mov	r2, #0
 2350 00cc A3F8A220 		strh	r2, [r3, #162]	@ movhi
 476:../Task.cpp   **** 		Offset_M[1][0] = 0;
 2351              		.loc 5 476 0
 2352 00d0 7B68     		ldr	r3, [r7, #4]
 2353 00d2 4FF00002 		mov	r2, #0
 2354 00d6 A3F8A420 		strh	r2, [r3, #164]	@ movhi
 477:../Task.cpp   **** 		Offset_M[1][1] = 0;
 2355              		.loc 5 477 0
 2356 00da 7B68     		ldr	r3, [r7, #4]
 2357 00dc 4FF00002 		mov	r2, #0
 2358 00e0 A3F8A620 		strh	r2, [r3, #166]	@ movhi
 478:../Task.cpp   **** 		Offset_M[2][0] = 0;
 2359              		.loc 5 478 0
 2360 00e4 7B68     		ldr	r3, [r7, #4]
 2361 00e6 4FF00002 		mov	r2, #0
 2362 00ea A3F8A820 		strh	r2, [r3, #168]	@ movhi
 479:../Task.cpp   **** 		Offset_M[2][1] = 0;
 2363              		.loc 5 479 0
 2364 00ee 7B68     		ldr	r3, [r7, #4]
 2365 00f0 4FF00002 		mov	r2, #0
 2366 00f4 A3F8AA20 		strh	r2, [r3, #170]	@ movhi
 480:../Task.cpp   **** 
 481:../Task.cpp   **** 		Offset_G[0] = 0;
 2367              		.loc 5 481 0
 2368 00f8 7B68     		ldr	r3, [r7, #4]
 2369 00fa 4FF00002 		mov	r2, #0
 2370 00fe A3F89420 		strh	r2, [r3, #148]	@ movhi
 482:../Task.cpp   **** 		Offset_G[1] = 0;
 2371              		.loc 5 482 0
 2372 0102 7B68     		ldr	r3, [r7, #4]
 2373 0104 4FF00002 		mov	r2, #0
 2374 0108 A3F89620 		strh	r2, [r3, #150]	@ movhi
 483:../Task.cpp   **** 		Offset_G[2] = 0;
 2375              		.loc 5 483 0
 2376 010c 7B68     		ldr	r3, [r7, #4]
 2377 010e 4FF00002 		mov	r2, #0
 2378 0112 A3F89820 		strh	r2, [r3, #152]	@ movhi
 484:../Task.cpp   **** 	}
 2379              		.loc 5 484 0
 2380 0116 07F10807 		add	r7, r7, #8
 2381 011a BD46     		mov	sp, r7
 2382 011c 80BD     		pop	{r7, pc}
 2383              	.L83:
 2384 011e 00BF     		.align	2
 2385              	.L82:
 2386 0120 54000000 		.word	LED+84
 2387              		.cfi_endproc
 2388              	.LFE213:
 2390              		.section	.text._ZN16SignalProcessing3putER7Command,"axG",%progbits,_ZN16SignalProcessing3putER7Com
 2391              		.align	2
 2392              		.weak	_ZN16SignalProcessing3putER7Command
 2393              		.thumb
 2394              		.thumb_func
 2396              	_ZN16SignalProcessing3putER7Command:
 2397              	.LFB214:
 485:../Task.cpp   **** 
 486:../Task.cpp   **** 	void put(Command& data) {
 2398              		.loc 5 486 0
 2399              		.cfi_startproc
 2400              		@ args = 0, pretend = 0, frame = 16
 2401              		@ frame_needed = 1, uses_anonymous_args = 0
 2402              		@ link register save eliminated.
 2403 0000 80B4     		push	{r7}
 2404              	.LCFI81:
 2405              		.cfi_def_cfa_offset 4
 2406              		.cfi_offset 7, -4
 2407 0002 85B0     		sub	sp, sp, #20
 2408              	.LCFI82:
 2409              		.cfi_def_cfa_offset 24
 2410 0004 00AF     		add	r7, sp, #0
 2411              	.LCFI83:
 2412              		.cfi_def_cfa_register 7
 2413 0006 7860     		str	r0, [r7, #4]
 2414 0008 3960     		str	r1, [r7, #0]
 2415              	.LBB21:
 487:../Task.cpp   **** 		Command* _data = (Command*) &data;
 2416              		.loc 5 487 0
 2417 000a 3B68     		ldr	r3, [r7, #0]
 2418 000c FB60     		str	r3, [r7, #12]
 488:../Task.cpp   **** 
 489:../Task.cpp   **** 		// Interval ndern:
 490:../Task.cpp   **** 		//if (_data->id == 'I')
 491:../Task.cpp   **** 		//	this->interval = _data->value;
 492:../Task.cpp   **** 		switch (_data->id) {
 2419              		.loc 5 492 0
 2420 000e FB68     		ldr	r3, [r7, #12]
 2421 0010 1B78     		ldrb	r3, [r3, #0]	@ zero_extendqisi2
 2422 0012 492B     		cmp	r3, #73
 2423 0014 08D1     		bne	.L84
 2424              	.L86:
 493:../Task.cpp   **** 		case 'I':
 494:../Task.cpp   **** 			this->interval = (uint) (_data->value);
 2425              		.loc 5 494 0
 2426 0016 FB68     		ldr	r3, [r7, #12]
 2427 0018 D3ED017A 		flds	s15, [r3, #4]
 2428 001c FCEEE77A 		ftouizs	s15, s15
 2429 0020 7B68     		ldr	r3, [r7, #4]
 2430 0022 C3ED217A 		fsts	s15, [r3, #132]	@ int
 495:../Task.cpp   **** 			break;
 2431              		.loc 5 495 0
 2432 0026 00BF     		nop
 2433              	.L84:
 2434              	.LBE21:
 496:../Task.cpp   **** 		}
 497:../Task.cpp   **** 	}
 2435              		.loc 5 497 0
 2436 0028 07F11407 		add	r7, r7, #20
 2437 002c BD46     		mov	sp, r7
 2438 002e 80BC     		pop	{r7}
 2439 0030 7047     		bx	lr
 2440              		.cfi_endproc
 2441              	.LFE214:
 2443              		.thumb_set .LTHUNK4,_ZN16SignalProcessing3putER7Command
 2444 0032 00BF     		.align	2
 2445              		.weak	_ZThn80_N16SignalProcessing3putER7Command
 2446              		.thumb
 2447              		.thumb_func
 2449              	_ZThn80_N16SignalProcessing3putER7Command:
 2450 0034 A0F15000 		sub	r0, r0, #80
 2451 0038 E2E7     		b	.LTHUNK4
 2453 003a 00BF     		.section	.rodata
 2454 0166 0000     		.align	2
 2455              	.LC11:
 2456 0168 2D2D204B 		.ascii	"-- Kalibrierung Beschleunigungssensor abgeschlossen"
 2456      616C6962 
 2456      72696572 
 2456      756E6720 
 2456      42657363 
 2457 019b 2E2E2E20 		.ascii	"... --\000"
 2457      2D2D00
 2458 01a2 0000     		.align	2
 2459              	.LC12:
 2460 01a4 4163633A 		.ascii	"Acc: Offset-X=%3.8f g, Offset-Y=%3.8f g, Offset-Z=%"
 2460      204F6666 
 2460      7365742D 
 2460      583D2533 
 2460      2E386620 
 2461 01d7 332E3866 		.ascii	"3.8f g\000\000"
 2461      20670000 
 2462 01df 00       		.align	2
 2463              	.LC13:
 2464 01e0 2D2D204B 		.ascii	"-- Kalibrierung Gyroskop abgeschlossen... --\000"
 2464      616C6962 
 2464      72696572 
 2464      756E6720 
 2464      4779726F 
 2465 020d 000000   		.align	2
 2466              	.LC14:
 2467 0210 4779726F 		.ascii	"Gyro: Offset-X=%3.8f dps, Offset-Y=%3.8f dps, Offse"
 2467      3A204F66 
 2467      66736574 
 2467      2D583D25 
 2467      332E3866 
 2468 0243 742D5A3D 		.ascii	"t-Z=%3.8f dps\000\000"
 2468      25332E38 
 2468      66206470 
 2468      730000
 2469 0252 0000     		.align	2
 2470              	.LC15:
 2471 0254 2D2D204B 		.ascii	"-- Kalibrierung Magnetometer abgeschlossen... --\000"
 2471      616C6962 
 2471      72696572 
 2471      756E6720 
 2471      4D61676E 
 2472 0285 000000   		.align	2
 2473              	.LC16:
 2474 0288 4D61673A 		.ascii	"Mag: Offset-X_max=%3.8f gauss, Offset-Y_max=%3.8f g"
 2474      204F6666 
 2474      7365742D 
 2474      585F6D61 
 2474      783D2533 
 2475 02bb 61757373 		.ascii	"auss, Offset-Z_max=%3.8f gauss\012Offset-X_min=%3.8"
 2475      2C204F66 
 2475      66736574 
 2475      2D5A5F6D 
 2475      61783D25 
 2476 02eb 66206761 		.ascii	"f gauss, Offset-Y_min=%3.8f gauss, Offset-Z_min=%3."
 2476      7573732C 
 2476      204F6666 
 2476      7365742D 
 2476      595F6D69 
 2477 031e 38662067 		.ascii	"8f gauss\000\000"
 2477      61757373 
 2477      0000
 2478              		.align	2
 2479              	.LC17:
 2480 0328 2323204B 		.ascii	"## Kalibrierung erfolgreich abgeschlossen! ##\000"
 2480      616C6962 
 2480      72696572 
 2480      756E6720 
 2480      6572666F 
 2481              		.section	.text._ZN16SignalProcessing3runEv,"axG",%progbits,_ZN16SignalProcessing3runEv,comdat
 2482              		.align	2
 2483              		.weak	_ZN16SignalProcessing3runEv
 2484              		.thumb
 2485              		.thumb_func
 2487              	_ZN16SignalProcessing3runEv:
 2488              	.LFB215:
 498:../Task.cpp   **** 
 499:../Task.cpp   **** 	void run(void) {
 2489              		.loc 5 499 0
 2490              		.cfi_startproc
 2491              		@ args = 0, pretend = 0, frame = 304
 2492              		@ frame_needed = 1, uses_anonymous_args = 0
 2493 0000 2DE9B04F 		push	{r4, r5, r7, r8, r9, sl, fp, lr}
 2494              	.LCFI84:
 2495              		.cfi_def_cfa_offset 32
 2496              		.cfi_offset 4, -32
 2497              		.cfi_offset 5, -28
 2498              		.cfi_offset 7, -24
 2499              		.cfi_offset 8, -20
 2500              		.cfi_offset 9, -16
 2501              		.cfi_offset 10, -12
 2502              		.cfi_offset 11, -8
 2503              		.cfi_offset 14, -4
 2504 0004 2DED048B 		fstmfdd	sp!, {d8, d9}
 2505              	.LCFI85:
 2506              		.cfi_def_cfa_offset 48
 2507              		.cfi_offset 80, -48
 2508              		.cfi_offset 82, -40
 2509 0008 D6B0     		sub	sp, sp, #344
 2510              	.LCFI86:
 2511              		.cfi_def_cfa_offset 392
 2512 000a 0AAF     		add	r7, sp, #40
 2513              	.LCFI87:
 2514              		.cfi_def_cfa 7, 352
 2515 000c 07F10403 		add	r3, r7, #4
 2516 0010 1860     		str	r0, [r3, #0]
 2517              	.L101:
 2518              	.LBB22:
 2519              	.LBB23:
 2520              	.LBB24:
 500:../Task.cpp   **** 		while (1) {
 501:../Task.cpp   **** 			// ############################# KALIBRIERUNG #############################
 502:../Task.cpp   **** 			if (!calibration_complete) {
 2521              		.loc 5 502 0
 2522 0012 07F10403 		add	r3, r7, #4
 2523 0016 1B68     		ldr	r3, [r3, #0]
 2524 0018 93F8B830 		ldrb	r3, [r3, #184]	@ zero_extendqisi2
 2525 001c 83F00103 		eor	r3, r3, #1
 2526 0020 DBB2     		uxtb	r3, r3
 2527 0022 002B     		cmp	r3, #0
 2528 0024 00F05482 		beq	.L88
 2529 0028 00E0     		b	.L96
 2530              	.L103:
 2531              	.LBB25:
 503:../Task.cpp   **** 				while (1) {
 2532              		.loc 5 503 0
 2533 002a 00BF     		nop
 2534              	.L96:
 2535              	.LBB26:
 2536              	.LBB27:
 504:../Task.cpp   **** 					static uint8_t counter = 1;
 505:../Task.cpp   **** 
 506:../Task.cpp   **** 					if (button.readPins() == 1) { // prfen ob Button gedrckt wurde
 2537              		.loc 5 506 0
 2538 002c 40F20000 		movw	r0, #:lower16:button
 2539 0030 C0F20000 		movt	r0, #:upper16:button
 2540 0034 FFF7FEFF 		bl	_ZN5RODOS8HAL_GPIO8readPinsEv
 2541 0038 0346     		mov	r3, r0
 2542 003a 012B     		cmp	r3, #1
 2543 003c 14BF     		ite	ne
 2544 003e 0023     		movne	r3, #0
 2545 0040 0123     		moveq	r3, #1
 2546 0042 DBB2     		uxtb	r3, r3
 2547 0044 002B     		cmp	r3, #0
 2548 0046 00F0C681 		beq	.L89
 2549              	.LBB28:
 507:../Task.cpp   **** 						ToggleLED(LED[3], 400);
 2550              		.loc 5 507 0
 2551 004a 7D48     		ldr	r0, .L104+8
 2552 004c 4FF4C871 		mov	r1, #400
 2553 0050 FFF7FEFF 		bl	_ZL9ToggleLEDRN5RODOS8HAL_GPIOEm
 508:../Task.cpp   **** 						AT(NOW() + 500 * MILLISECONDS); // kurz warten bevor kalibriert wird um nicht irgendwie nch
 2554              		.loc 5 508 0
 2555 0054 FFF7FEFF 		bl	_ZN5RODOS9TimeModel14getNanosecondsEv
 2556 0058 77A3     		adr	r3, .L104
 2557 005a D3E90023 		ldrd	r2, [r3]
 2558 005e 1218     		adds	r2, r2, r0
 2559 0060 43EB0103 		adc	r3, r3, r1
 2560 0064 1046     		mov	r0, r2
 2561 0066 1946     		mov	r1, r3
 2562 0068 4FF00002 		mov	r2, #0
 2563 006c FFF7FEFF 		bl	_ZN5RODOS6Thread18suspendCallerUntilExPv
 2564              	.LBB29:
 509:../Task.cpp   **** 
 510:../Task.cpp   **** 						// Reihenfolge jeweils: x, y, z
 511:../Task.cpp   **** 						// Unterscheiden, in welcher Kalibrierungsphase wir sind (1-3)
 512:../Task.cpp   **** 						switch (counter) {
 2565              		.loc 5 512 0
 2566 0070 40F20003 		movw	r3, #:lower16:_ZZN16SignalProcessing3runEvE7counter
 2567 0074 C0F20003 		movt	r3, #:upper16:_ZZN16SignalProcessing3runEvE7counter
 2568 0078 1B78     		ldrb	r3, [r3, #0]	@ zero_extendqisi2
 2569 007a 022B     		cmp	r3, #2
 2570 007c 70D0     		beq	.L92
 2571 007e 032B     		cmp	r3, #3
 2572 0080 00F0E680 		beq	.L93
 2573 0084 012B     		cmp	r3, #1
 2574 0086 40F09081 		bne	.L90
 2575              	.L91:
 2576              	.LBB30:
 513:../Task.cpp   **** 						case 1:
 514:../Task.cpp   **** 							// Accelerometer
 515:../Task.cpp   **** 							calibrateAcc(this->Offset_A);
 2577              		.loc 5 515 0
 2578 008a 07F10403 		add	r3, r7, #4
 2579 008e 1B68     		ldr	r3, [r3, #0]
 2580 0090 03F18803 		add	r3, r3, #136
 2581 0094 1846     		mov	r0, r3
 2582 0096 FFF7FEFF 		bl	_ZL12calibrateAccRA3_s
 516:../Task.cpp   **** 							writeUART(BT2UART,
 517:../Task.cpp   **** 									"-- Kalibrierung Beschleunigungssensor abgeschlossen... --");
 2583              		.loc 5 517 0
 2584 009a 40F20000 		movw	r0, #:lower16:BT2UART
 2585 009e C0F20000 		movt	r0, #:upper16:BT2UART
 2586 00a2 40F20001 		movw	r1, #:lower16:.LC11
 2587 00a6 C0F20001 		movt	r1, #:upper16:.LC11
 2588 00aa FFF7FEFF 		bl	_ZL9writeUARTRN5RODOS8HAL_UARTEPKc
 2589              	.LBB31:
 518:../Task.cpp   **** 							{
 519:../Task.cpp   **** 								const char* cal_acc_msg =
 520:../Task.cpp   **** 										"Acc: Offset-X=%3.8f g, Offset-Y=%3.8f g, Offset-Z=%3.8f g\0";
 2590              		.loc 5 520 0
 2591 00ae 40F20003 		movw	r3, #:lower16:.LC12
 2592 00b2 C0F20003 		movt	r3, #:upper16:.LC12
 2593 00b6 C7F82431 		str	r3, [r7, #292]
 521:../Task.cpp   **** 								char cal_acc_str[79];
 522:../Task.cpp   **** 								sprintf(cal_acc_str, cal_acc_msg,
 523:../Task.cpp   **** 										static_cast<float>(this->Offset_A[0]
 2594              		.loc 5 523 0
 2595 00ba 07F10403 		add	r3, r7, #4
 2596 00be 1B68     		ldr	r3, [r3, #0]
 2597 00c0 B3F88830 		ldrh	r3, [r3, #136]
 524:../Task.cpp   **** 												* LSB_A),
 525:../Task.cpp   **** 										static_cast<float>(this->Offset_A[1]
 526:../Task.cpp   **** 												* LSB_A),
 527:../Task.cpp   **** 										static_cast<float>(this->Offset_A[2]
 528:../Task.cpp   **** 												* LSB_A));
 2598              		.loc 5 528 0
 2599 00c4 1BB2     		sxth	r3, r3
 2600 00c6 07EE903A 		fmsr	s15, r3	@ int
 2601 00ca B8EEE77A 		fsitos	s14, s15
 2602 00ce DFED5D7A 		flds	s15, .L104+12
 2603 00d2 67EE277A 		fmuls	s15, s14, s15
 2604 00d6 17EE900A 		fmrs	r0, s15
 2605 00da FFF7FEFF 		bl	__aeabi_f2d
 2606 00de 0446     		mov	r4, r0
 2607 00e0 0D46     		mov	r5, r1
 525:../Task.cpp   **** 										static_cast<float>(this->Offset_A[1]
 2608              		.loc 5 525 0
 2609 00e2 07F10403 		add	r3, r7, #4
 2610 00e6 1B68     		ldr	r3, [r3, #0]
 2611 00e8 B3F88A30 		ldrh	r3, [r3, #138]
 2612              		.loc 5 528 0
 2613 00ec 1BB2     		sxth	r3, r3
 2614 00ee 07EE903A 		fmsr	s15, r3	@ int
 2615 00f2 B8EEE77A 		fsitos	s14, s15
 2616 00f6 DFED537A 		flds	s15, .L104+12
 2617 00fa 67EE277A 		fmuls	s15, s14, s15
 2618 00fe 17EE900A 		fmrs	r0, s15
 2619 0102 FFF7FEFF 		bl	__aeabi_f2d
 2620 0106 8046     		mov	r8, r0
 2621 0108 8946     		mov	r9, r1
 527:../Task.cpp   **** 										static_cast<float>(this->Offset_A[2]
 2622              		.loc 5 527 0
 2623 010a 07F10403 		add	r3, r7, #4
 2624 010e 1B68     		ldr	r3, [r3, #0]
 2625 0110 B3F88C30 		ldrh	r3, [r3, #140]
 2626              		.loc 5 528 0
 2627 0114 1BB2     		sxth	r3, r3
 2628 0116 07EE903A 		fmsr	s15, r3	@ int
 2629 011a B8EEE77A 		fsitos	s14, s15
 2630 011e DFED497A 		flds	s15, .L104+12
 2631 0122 67EE277A 		fmuls	s15, s14, s15
 2632 0126 17EE900A 		fmrs	r0, s15
 2633 012a FFF7FEFF 		bl	__aeabi_f2d
 2634 012e 0246     		mov	r2, r0
 2635 0130 0B46     		mov	r3, r1
 2636 0132 07F10C01 		add	r1, r7, #12
 2637 0136 CDE90089 		strd	r8, [sp]
 2638 013a CDE90223 		strd	r2, [sp, #8]
 2639 013e 0846     		mov	r0, r1
 2640 0140 D7F82411 		ldr	r1, [r7, #292]
 2641 0144 2246     		mov	r2, r4
 2642 0146 2B46     		mov	r3, r5
 2643 0148 FFF7FEFF 		bl	sprintf
 529:../Task.cpp   **** 								writeUART(BT2UART, cal_acc_str);
 2644              		.loc 5 529 0
 2645 014c 07F10C03 		add	r3, r7, #12
 2646 0150 40F20000 		movw	r0, #:lower16:BT2UART
 2647 0154 C0F20000 		movt	r0, #:upper16:BT2UART
 2648 0158 1946     		mov	r1, r3
 2649 015a FFF7FEFF 		bl	_ZL9writeUARTRN5RODOS8HAL_UARTEPKc
 2650              	.LBE31:
 530:../Task.cpp   **** 							}
 531:../Task.cpp   **** 							break;
 2651              		.loc 5 531 0
 2652 015e 24E1     		b	.L90
 2653              	.L92:
 532:../Task.cpp   **** 
 533:../Task.cpp   **** 						case 2:
 534:../Task.cpp   **** 							// Gyroskope
 535:../Task.cpp   **** 							calibrateGyro(this->Offset_G);
 2654              		.loc 5 535 0
 2655 0160 07F10403 		add	r3, r7, #4
 2656 0164 1B68     		ldr	r3, [r3, #0]
 2657 0166 03F19403 		add	r3, r3, #148
 2658 016a 1846     		mov	r0, r3
 2659 016c FFF7FEFF 		bl	_ZL13calibrateGyroRA3_s
 536:../Task.cpp   **** 							writeUART(BT2UART,
 537:../Task.cpp   **** 									"-- Kalibrierung Gyroskop abgeschlossen... --");
 2660              		.loc 5 537 0
 2661 0170 40F20000 		movw	r0, #:lower16:BT2UART
 2662 0174 C0F20000 		movt	r0, #:upper16:BT2UART
 2663 0178 40F20001 		movw	r1, #:lower16:.LC13
 2664 017c C0F20001 		movt	r1, #:upper16:.LC13
 2665 0180 FFF7FEFF 		bl	_ZL9writeUARTRN5RODOS8HAL_UARTEPKc
 2666              	.LBB32:
 538:../Task.cpp   **** 							{
 539:../Task.cpp   **** 								const char* cal_gyro_msg =
 540:../Task.cpp   **** 										"Gyro: Offset-X=%3.8f dps, Offset-Y=%3.8f dps, Offset-Z=%3.8f dps\0";
 2667              		.loc 5 540 0
 2668 0184 40F20003 		movw	r3, #:lower16:.LC14
 2669 0188 C0F20003 		movt	r3, #:upper16:.LC14
 2670 018c C7F82031 		str	r3, [r7, #288]
 541:../Task.cpp   **** 								char cal_gyro_str[86];
 542:../Task.cpp   **** 								sprintf(cal_gyro_str, cal_gyro_msg,
 543:../Task.cpp   **** 										static_cast<float>(this->Offset_G[0]
 2671              		.loc 5 543 0
 2672 0190 07F10403 		add	r3, r7, #4
 2673 0194 1B68     		ldr	r3, [r3, #0]
 2674 0196 B3F89430 		ldrh	r3, [r3, #148]
 544:../Task.cpp   **** 												* LSB_G),
 545:../Task.cpp   **** 										static_cast<float>(this->Offset_G[1]
 546:../Task.cpp   **** 												* LSB_G),
 547:../Task.cpp   **** 										static_cast<float>(this->Offset_G[2]
 548:../Task.cpp   **** 												* LSB_G));
 2675              		.loc 5 548 0
 2676 019a 1BB2     		sxth	r3, r3
 2677 019c 07EE903A 		fmsr	s15, r3	@ int
 2678 01a0 B8EEE77A 		fsitos	s14, s15
 2679 01a4 DFED287A 		flds	s15, .L104+16
 2680 01a8 67EE277A 		fmuls	s15, s14, s15
 2681 01ac 17EE900A 		fmrs	r0, s15
 2682 01b0 FFF7FEFF 		bl	__aeabi_f2d
 2683 01b4 0446     		mov	r4, r0
 2684 01b6 0D46     		mov	r5, r1
 545:../Task.cpp   **** 										static_cast<float>(this->Offset_G[1]
 2685              		.loc 5 545 0
 2686 01b8 07F10403 		add	r3, r7, #4
 2687 01bc 1B68     		ldr	r3, [r3, #0]
 2688 01be B3F89630 		ldrh	r3, [r3, #150]
 2689              		.loc 5 548 0
 2690 01c2 1BB2     		sxth	r3, r3
 2691 01c4 07EE903A 		fmsr	s15, r3	@ int
 2692 01c8 B8EEE77A 		fsitos	s14, s15
 2693 01cc DFED1E7A 		flds	s15, .L104+16
 2694 01d0 67EE277A 		fmuls	s15, s14, s15
 2695 01d4 17EE900A 		fmrs	r0, s15
 2696 01d8 FFF7FEFF 		bl	__aeabi_f2d
 2697 01dc 8046     		mov	r8, r0
 2698 01de 8946     		mov	r9, r1
 547:../Task.cpp   **** 										static_cast<float>(this->Offset_G[2]
 2699              		.loc 5 547 0
 2700 01e0 07F10403 		add	r3, r7, #4
 2701 01e4 1B68     		ldr	r3, [r3, #0]
 2702 01e6 B3F89830 		ldrh	r3, [r3, #152]
 2703              		.loc 5 548 0
 2704 01ea 1BB2     		sxth	r3, r3
 2705 01ec 07EE903A 		fmsr	s15, r3	@ int
 2706 01f0 B8EEE77A 		fsitos	s14, s15
 2707 01f4 DFED147A 		flds	s15, .L104+16
 2708 01f8 67EE277A 		fmuls	s15, s14, s15
 2709 01fc 17EE900A 		fmrs	r0, s15
 2710 0200 FFF7FEFF 		bl	__aeabi_f2d
 2711 0204 0246     		mov	r2, r0
 2712 0206 0B46     		mov	r3, r1
 2713 0208 07F10C01 		add	r1, r7, #12
 2714 020c CDE90089 		strd	r8, [sp]
 2715 0210 CDE90223 		strd	r2, [sp, #8]
 2716 0214 0846     		mov	r0, r1
 2717 0216 D7F82011 		ldr	r1, [r7, #288]
 2718 021a 2246     		mov	r2, r4
 2719 021c 2B46     		mov	r3, r5
 2720 021e FFF7FEFF 		bl	sprintf
 549:../Task.cpp   **** 								writeUART(BT2UART, cal_gyro_str);
 2721              		.loc 5 549 0
 2722 0222 07F10C03 		add	r3, r7, #12
 2723 0226 40F20000 		movw	r0, #:lower16:BT2UART
 2724 022a C0F20000 		movt	r0, #:upper16:BT2UART
 2725 022e 1946     		mov	r1, r3
 2726 0230 FFF7FEFF 		bl	_ZL9writeUARTRN5RODOS8HAL_UARTEPKc
 2727              	.LBE32:
 550:../Task.cpp   **** 							}
 551:../Task.cpp   **** 							break;
 2728              		.loc 5 551 0
 2729 0234 B9E0     		b	.L90
 2730              	.L105:
 2731 0236 00BF     		.align	3
 2732              	.L104:
 2733 0238 0065CD1D 		.word	500000000
 2734 023c 00000000 		.word	0
 2735 0240 54000000 		.word	LED+84
 2736 0244 00018038 		.word	947912960
 2737 0248 F4017A3D 		.word	1031406068
 2738 024c 00010039 		.word	956301568
 2739              	.L93:
 552:../Task.cpp   **** 
 553:../Task.cpp   **** 						case 3:
 554:../Task.cpp   **** 							// Magnetometer
 555:../Task.cpp   **** 							calibrateMag(this->Offset_M);
 2740              		.loc 5 555 0
 2741 0250 07F10403 		add	r3, r7, #4
 2742 0254 1B68     		ldr	r3, [r3, #0]
 2743 0256 03F1A003 		add	r3, r3, #160
 2744 025a 1846     		mov	r0, r3
 2745 025c FFF7FEFF 		bl	_ZL12calibrateMagRA3_A2_s
 556:../Task.cpp   **** 							writeUART(BT2UART,
 557:../Task.cpp   **** 									"-- Kalibrierung Magnetometer abgeschlossen... --");
 2746              		.loc 5 557 0
 2747 0260 40F20000 		movw	r0, #:lower16:BT2UART
 2748 0264 C0F20000 		movt	r0, #:upper16:BT2UART
 2749 0268 40F20001 		movw	r1, #:lower16:.LC15
 2750 026c C0F20001 		movt	r1, #:upper16:.LC15
 2751 0270 FFF7FEFF 		bl	_ZL9writeUARTRN5RODOS8HAL_UARTEPKc
 2752              	.LBB33:
 558:../Task.cpp   **** 							{
 559:../Task.cpp   **** 								const char* cal_mag_msg =
 560:../Task.cpp   **** 										"Mag: Offset-X_max=%3.8f gauss, Offset-Y_max=%3.8f gauss, Offset-Z_max=%3.8f gauss\nOffse
 2753              		.loc 5 560 0
 2754 0274 40F20003 		movw	r3, #:lower16:.LC16
 2755 0278 C0F20003 		movt	r3, #:upper16:.LC16
 2756 027c C7F81C31 		str	r3, [r7, #284]
 561:../Task.cpp   **** 								char cal_mag_str[201];
 562:../Task.cpp   **** 								sprintf(cal_mag_str, cal_mag_msg,
 563:../Task.cpp   **** 										static_cast<float>(this->Offset_M[0][1]
 2757              		.loc 5 563 0
 2758 0280 07F10403 		add	r3, r7, #4
 2759 0284 1B68     		ldr	r3, [r3, #0]
 2760 0286 B3F8A230 		ldrh	r3, [r3, #162]
 564:../Task.cpp   **** 												* LSB_M),
 565:../Task.cpp   **** 										static_cast<float>(this->Offset_M[1][1]
 566:../Task.cpp   **** 												* LSB_M),
 567:../Task.cpp   **** 										static_cast<float>(this->Offset_M[2][1]
 568:../Task.cpp   **** 												* LSB_M),
 569:../Task.cpp   **** 										static_cast<float>(this->Offset_M[0][0]
 570:../Task.cpp   **** 												* LSB_M),
 571:../Task.cpp   **** 										static_cast<float>(this->Offset_M[1][0]
 572:../Task.cpp   **** 												* LSB_M),
 573:../Task.cpp   **** 										static_cast<float>(this->Offset_M[2][0]
 574:../Task.cpp   **** 												* LSB_M));
 2761              		.loc 5 574 0
 2762 028a 1BB2     		sxth	r3, r3
 2763 028c 07EE903A 		fmsr	s15, r3	@ int
 2764 0290 B8EEE77A 		fsitos	s14, s15
 2765 0294 5FED137A 		flds	s15, .L104+20
 2766 0298 67EE277A 		fmuls	s15, s14, s15
 2767 029c 17EE900A 		fmrs	r0, s15
 2768 02a0 FFF7FEFF 		bl	__aeabi_f2d
 2769 02a4 0446     		mov	r4, r0
 2770 02a6 0D46     		mov	r5, r1
 565:../Task.cpp   **** 										static_cast<float>(this->Offset_M[1][1]
 2771              		.loc 5 565 0
 2772 02a8 07F10403 		add	r3, r7, #4
 2773 02ac 1B68     		ldr	r3, [r3, #0]
 2774 02ae B3F8A630 		ldrh	r3, [r3, #166]
 2775              		.loc 5 574 0
 2776 02b2 1BB2     		sxth	r3, r3
 2777 02b4 07EE903A 		fmsr	s15, r3	@ int
 2778 02b8 B8EEE77A 		fsitos	s14, s15
 2779 02bc 5FED1D7A 		flds	s15, .L104+20
 2780 02c0 67EE277A 		fmuls	s15, s14, s15
 2781 02c4 17EE900A 		fmrs	r0, s15
 2782 02c8 FFF7FEFF 		bl	__aeabi_f2d
 2783 02cc 41EC190B 		fmdrr	d9, r0, r1
 567:../Task.cpp   **** 										static_cast<float>(this->Offset_M[2][1]
 2784              		.loc 5 567 0
 2785 02d0 07F10403 		add	r3, r7, #4
 2786 02d4 1B68     		ldr	r3, [r3, #0]
 2787 02d6 B3F8AA30 		ldrh	r3, [r3, #170]
 2788              		.loc 5 574 0
 2789 02da 1BB2     		sxth	r3, r3
 2790 02dc 07EE903A 		fmsr	s15, r3	@ int
 2791 02e0 B8EEE77A 		fsitos	s14, s15
 2792 02e4 5FED277A 		flds	s15, .L104+20
 2793 02e8 67EE277A 		fmuls	s15, s14, s15
 2794 02ec 17EE900A 		fmrs	r0, s15
 2795 02f0 FFF7FEFF 		bl	__aeabi_f2d
 2796 02f4 41EC180B 		fmdrr	d8, r0, r1
 569:../Task.cpp   **** 										static_cast<float>(this->Offset_M[0][0]
 2797              		.loc 5 569 0
 2798 02f8 07F10403 		add	r3, r7, #4
 2799 02fc 1B68     		ldr	r3, [r3, #0]
 2800 02fe B3F8A030 		ldrh	r3, [r3, #160]
 2801              		.loc 5 574 0
 2802 0302 1BB2     		sxth	r3, r3
 2803 0304 07EE903A 		fmsr	s15, r3	@ int
 2804 0308 B8EEE77A 		fsitos	s14, s15
 2805 030c 5FED317A 		flds	s15, .L104+20
 2806 0310 67EE277A 		fmuls	s15, s14, s15
 2807 0314 17EE900A 		fmrs	r0, s15
 2808 0318 FFF7FEFF 		bl	__aeabi_f2d
 2809 031c 8246     		mov	sl, r0
 2810 031e 8B46     		mov	fp, r1
 571:../Task.cpp   **** 										static_cast<float>(this->Offset_M[1][0]
 2811              		.loc 5 571 0
 2812 0320 07F10403 		add	r3, r7, #4
 2813 0324 1B68     		ldr	r3, [r3, #0]
 2814 0326 B3F8A430 		ldrh	r3, [r3, #164]
 2815              		.loc 5 574 0
 2816 032a 1BB2     		sxth	r3, r3
 2817 032c 07EE903A 		fmsr	s15, r3	@ int
 2818 0330 B8EEE77A 		fsitos	s14, s15
 2819 0334 5FED3B7A 		flds	s15, .L104+20
 2820 0338 67EE277A 		fmuls	s15, s14, s15
 2821 033c 17EE900A 		fmrs	r0, s15
 2822 0340 FFF7FEFF 		bl	__aeabi_f2d
 2823 0344 8046     		mov	r8, r0
 2824 0346 8946     		mov	r9, r1
 573:../Task.cpp   **** 										static_cast<float>(this->Offset_M[2][0]
 2825              		.loc 5 573 0
 2826 0348 07F10403 		add	r3, r7, #4
 2827 034c 1B68     		ldr	r3, [r3, #0]
 2828 034e B3F8A830 		ldrh	r3, [r3, #168]
 2829              		.loc 5 574 0
 2830 0352 1BB2     		sxth	r3, r3
 2831 0354 07EE903A 		fmsr	s15, r3	@ int
 2832 0358 B8EEE77A 		fsitos	s14, s15
 2833 035c 5FED457A 		flds	s15, .L104+20
 2834 0360 67EE277A 		fmuls	s15, s14, s15
 2835 0364 17EE900A 		fmrs	r0, s15
 2836 0368 FFF7FEFF 		bl	__aeabi_f2d
 2837 036c 0246     		mov	r2, r0
 2838 036e 0B46     		mov	r3, r1
 2839 0370 07F10C01 		add	r1, r7, #12
 2840 0374 8DED009B 		fstd	d9, [sp, #0]
 2841 0378 8DED028B 		fstd	d8, [sp, #8]
 2842 037c CDE904AB 		strd	sl, [sp, #16]
 2843 0380 CDE90689 		strd	r8, [sp, #24]
 2844 0384 CDE90823 		strd	r2, [sp, #32]
 2845 0388 0846     		mov	r0, r1
 2846 038a D7F81C11 		ldr	r1, [r7, #284]
 2847 038e 2246     		mov	r2, r4
 2848 0390 2B46     		mov	r3, r5
 2849 0392 FFF7FEFF 		bl	sprintf
 575:../Task.cpp   **** 								writeUART(BT2UART, cal_mag_str);
 2850              		.loc 5 575 0
 2851 0396 07F10C03 		add	r3, r7, #12
 2852 039a 40F20000 		movw	r0, #:lower16:BT2UART
 2853 039e C0F20000 		movt	r0, #:upper16:BT2UART
 2854 03a2 1946     		mov	r1, r3
 2855 03a4 FFF7FEFF 		bl	_ZL9writeUARTRN5RODOS8HAL_UARTEPKc
 2856              	.LBE33:
 576:../Task.cpp   **** 							}
 577:../Task.cpp   **** 							break;
 2857              		.loc 5 577 0
 2858 03a8 00BF     		nop
 2859              	.L90:
 2860              	.LBE30:
 2861              	.LBE29:
 578:../Task.cpp   **** 						}
 579:../Task.cpp   **** 
 580:../Task.cpp   **** 						// Zhler inkrementieren: (ist zugleich auch Abbruchbedingung, da nach jeder Runde inkrement
 581:../Task.cpp   **** 						counter++;
 2862              		.loc 5 581 0
 2863 03aa 40F20003 		movw	r3, #:lower16:_ZZN16SignalProcessing3runEvE7counter
 2864 03ae C0F20003 		movt	r3, #:upper16:_ZZN16SignalProcessing3runEvE7counter
 2865 03b2 1B78     		ldrb	r3, [r3, #0]	@ zero_extendqisi2
 2866 03b4 03F10103 		add	r3, r3, #1
 2867 03b8 DAB2     		uxtb	r2, r3
 2868 03ba 40F20003 		movw	r3, #:lower16:_ZZN16SignalProcessing3runEvE7counter
 2869 03be C0F20003 		movt	r3, #:upper16:_ZZN16SignalProcessing3runEvE7counter
 2870 03c2 1A70     		strb	r2, [r3, #0]
 582:../Task.cpp   **** 
 583:../Task.cpp   **** 						if (counter == 4)
 2871              		.loc 5 583 0
 2872 03c4 40F20003 		movw	r3, #:lower16:_ZZN16SignalProcessing3runEvE7counter
 2873 03c8 C0F20003 		movt	r3, #:upper16:_ZZN16SignalProcessing3runEvE7counter
 2874 03cc 1B78     		ldrb	r3, [r3, #0]	@ zero_extendqisi2
 2875 03ce 042B     		cmp	r3, #4
 2876 03d0 7FF42BAE 		bne	.L103
 584:../Task.cpp   **** 							break;
 2877              		.loc 5 584 0
 2878 03d4 05E0     		b	.L102
 2879              	.L89:
 2880              	.LBE28:
 585:../Task.cpp   **** 
 586:../Task.cpp   **** 					} else {
 587:../Task.cpp   **** 						// wird der Button nicht gedrckt, durch schnelles Aufblinken der LED die Bereitschaft signa
 588:../Task.cpp   **** 						ToggleLED(LED[3], 150);
 2881              		.loc 5 588 0
 2882 03d6 2648     		ldr	r0, .L106+8
 2883 03d8 4FF09601 		mov	r1, #150
 2884 03dc FFF7FEFF 		bl	_ZL9ToggleLEDRN5RODOS8HAL_GPIOEm
 2885              	.LBE27:
 2886              	.LBE26:
 503:../Task.cpp   **** 				while (1) {
 2887              		.loc 5 503 0
 2888 03e0 23E6     		b	.L103
 2889              	.L102:
 589:../Task.cpp   **** 					}
 590:../Task.cpp   **** 				}
 591:../Task.cpp   **** 
 592:../Task.cpp   **** 				writeUART(BT2UART,
 593:../Task.cpp   **** 						"## Kalibrierung erfolgreich abgeschlossen! ##");
 2890              		.loc 5 593 0
 2891 03e2 40F20000 		movw	r0, #:lower16:BT2UART
 2892 03e6 C0F20000 		movt	r0, #:upper16:BT2UART
 2893 03ea 40F20001 		movw	r1, #:lower16:.LC17
 2894 03ee C0F20001 		movt	r1, #:upper16:.LC17
 2895 03f2 FFF7FEFF 		bl	_ZL9writeUARTRN5RODOS8HAL_UARTEPKc
 2896              	.LBB34:
 2897              	.LBB35:
 594:../Task.cpp   **** 
 595:../Task.cpp   **** 				// Kalibrierung fertig, zur Signalisierung, einmal kurz mit allen LEDs aufleuchten:
 596:../Task.cpp   **** 				{
 597:../Task.cpp   **** 					for (int i = 0; i < 4; i++)
 2898              		.loc 5 597 0
 2899 03f6 4FF00003 		mov	r3, #0
 2900 03fa C7F82C31 		str	r3, [r7, #300]
 2901 03fe 17E0     		b	.L97
 2902              	.L98:
 598:../Task.cpp   **** 						LED[i].setPins(1);
 2903              		.loc 5 598 0 discriminator 2
 2904 0400 D7F82C21 		ldr	r2, [r7, #300]
 2905 0404 1346     		mov	r3, r2
 2906 0406 4FEAC303 		lsl	r3, r3, #3
 2907 040a 9B1A     		subs	r3, r3, r2
 2908 040c 4FEA8303 		lsl	r3, r3, #2
 2909 0410 40F20002 		movw	r2, #:lower16:LED
 2910 0414 C0F20002 		movt	r2, #:upper16:LED
 2911 0418 9B18     		adds	r3, r3, r2
 2912 041a 1846     		mov	r0, r3
 2913 041c 4FF00101 		mov	r1, #1
 2914 0420 FFF7FEFF 		bl	_ZN5RODOS8HAL_GPIO7setPinsEm
 597:../Task.cpp   **** 					for (int i = 0; i < 4; i++)
 2915              		.loc 5 597 0 discriminator 2
 2916 0424 D7F82C31 		ldr	r3, [r7, #300]
 2917 0428 03F10103 		add	r3, r3, #1
 2918 042c C7F82C31 		str	r3, [r7, #300]
 2919              	.L97:
 597:../Task.cpp   **** 					for (int i = 0; i < 4; i++)
 2920              		.loc 5 597 0 is_stmt 0 discriminator 1
 2921 0430 D7F82C31 		ldr	r3, [r7, #300]
 2922 0434 032B     		cmp	r3, #3
 2923 0436 CCBF     		ite	gt
 2924 0438 0023     		movgt	r3, #0
 2925 043a 0123     		movle	r3, #1
 2926 043c DBB2     		uxtb	r3, r3
 2927 043e 002B     		cmp	r3, #0
 2928 0440 DED1     		bne	.L98
 2929              	.LBE35:
 599:../Task.cpp   **** 					AT(NOW() + 1 * SECONDS);
 2930              		.loc 5 599 0 is_stmt 1
 2931 0442 FFF7FEFF 		bl	_ZN5RODOS9TimeModel14getNanosecondsEv
 2932 0446 08A3     		adr	r3, .L106
 2933 0448 D3E90023 		ldrd	r2, [r3]
 2934 044c 1218     		adds	r2, r2, r0
 2935 044e 43EB0103 		adc	r3, r3, r1
 2936 0452 1046     		mov	r0, r2
 2937 0454 1946     		mov	r1, r3
 2938 0456 4FF00002 		mov	r2, #0
 2939 045a FFF7FEFF 		bl	_ZN5RODOS6Thread18suspendCallerUntilExPv
 2940              	.LBB36:
 600:../Task.cpp   **** 					for (int i = 0; i < 4; i++)
 2941              		.loc 5 600 0
 2942 045e 4FF00003 		mov	r3, #0
 2943 0462 C7F82831 		str	r3, [r7, #296]
 2944 0466 23E0     		b	.L99
 2945              	.L107:
 2946              		.align	3
 2947              	.L106:
 2948 0468 00CA9A3B 		.word	1000000000
 2949 046c 00000000 		.word	0
 2950 0470 54000000 		.word	LED+84
 2951 0474 00018038 		.word	947912960
 2952 0478 F4017A3D 		.word	1031406068
 2953 047c 00010039 		.word	956301568
 2954              	.L100:
 601:../Task.cpp   **** 						LED[i].setPins(0);
 2955              		.loc 5 601 0 discriminator 2
 2956 0480 D7F82821 		ldr	r2, [r7, #296]
 2957 0484 1346     		mov	r3, r2
 2958 0486 4FEAC303 		lsl	r3, r3, #3
 2959 048a 9B1A     		subs	r3, r3, r2
 2960 048c 4FEA8303 		lsl	r3, r3, #2
 2961 0490 40F20002 		movw	r2, #:lower16:LED
 2962 0494 C0F20002 		movt	r2, #:upper16:LED
 2963 0498 9B18     		adds	r3, r3, r2
 2964 049a 1846     		mov	r0, r3
 2965 049c 4FF00001 		mov	r1, #0
 2966 04a0 FFF7FEFF 		bl	_ZN5RODOS8HAL_GPIO7setPinsEm
 600:../Task.cpp   **** 					for (int i = 0; i < 4; i++)
 2967              		.loc 5 600 0 discriminator 2
 2968 04a4 D7F82831 		ldr	r3, [r7, #296]
 2969 04a8 03F10103 		add	r3, r3, #1
 2970 04ac C7F82831 		str	r3, [r7, #296]
 2971              	.L99:
 600:../Task.cpp   **** 					for (int i = 0; i < 4; i++)
 2972              		.loc 5 600 0 is_stmt 0 discriminator 1
 2973 04b0 D7F82831 		ldr	r3, [r7, #296]
 2974 04b4 032B     		cmp	r3, #3
 2975 04b6 CCBF     		ite	gt
 2976 04b8 0023     		movgt	r3, #0
 2977 04ba 0123     		movle	r3, #1
 2978 04bc DBB2     		uxtb	r3, r3
 2979 04be 002B     		cmp	r3, #0
 2980 04c0 DED1     		bne	.L100
 2981              	.LBE36:
 2982              	.LBE34:
 602:../Task.cpp   **** 				}
 603:../Task.cpp   **** 
 604:../Task.cpp   **** 				// anschlieend alle Offsets in UART ausgeben:
 605:../Task.cpp   **** 
 606:../Task.cpp   **** 				//, Offsets ausgeben:
 607:../Task.cpp   **** 
 608:../Task.cpp   **** 				this->calibration_complete = true;
 2983              		.loc 5 608 0 is_stmt 1
 2984 04c2 07F10403 		add	r3, r7, #4
 2985 04c6 1B68     		ldr	r3, [r3, #0]
 2986 04c8 4FF00102 		mov	r2, #1
 2987 04cc 83F8B820 		strb	r2, [r3, #184]
 2988              	.L88:
 2989              	.LBE25:
 2990              	.LBE24:
 609:../Task.cpp   **** 			}
 610:../Task.cpp   **** 
 611:../Task.cpp   **** 			// ########################### NEUE SENSORDATEN ###########################
 612:../Task.cpp   **** 			// zugehrige LED toggeln:
 613:../Task.cpp   **** 			ToggleLED(LED[0], 500);
 2991              		.loc 5 613 0
 2992 04d0 40F20000 		movw	r0, #:lower16:LED
 2993 04d4 C0F20000 		movt	r0, #:upper16:LED
 2994 04d8 4FF4FA71 		mov	r1, #500
 2995 04dc FFF7FEFF 		bl	_ZL9ToggleLEDRN5RODOS8HAL_GPIOEm
 2996              	.LBB37:
 614:../Task.cpp   **** 
 615:../Task.cpp   **** 			{
 616:../Task.cpp   **** 				// Accelerometer:
 617:../Task.cpp   **** 				int16_t temp[3] = { 0, 0, 0 };
 2997              		.loc 5 617 0
 2998 04e0 4FF00003 		mov	r3, #0
 2999 04e4 A7F81431 		strh	r3, [r7, #276]	@ movhi
 3000 04e8 4FF00003 		mov	r3, #0
 3001 04ec A7F81631 		strh	r3, [r7, #278]	@ movhi
 3002 04f0 4FF00003 		mov	r3, #0
 3003 04f4 A7F81831 		strh	r3, [r7, #280]	@ movhi
 618:../Task.cpp   **** 
 619:../Task.cpp   **** 				readSensor6Bytes(temp, LSM9DS1_AG, OUT_X_XL);
 3004              		.loc 5 619 0
 3005 04f8 07F58A73 		add	r3, r7, #276
 3006 04fc 1846     		mov	r0, r3
 3007 04fe 4FF06B01 		mov	r1, #107
 3008 0502 4FF02802 		mov	r2, #40
 3009 0506 FFF7FEFF 		bl	_ZL16readSensor6BytesRA3_shh
 620:../Task.cpp   **** 
 621:../Task.cpp   **** 				Data data;
 622:../Task.cpp   **** 				data.x = int(temp[0] - this->Offset_A[0]) * LSB_A;
 3010              		.loc 5 622 0
 3011 050a B7F81431 		ldrh	r3, [r7, #276]
 3012 050e 1AB2     		sxth	r2, r3
 3013 0510 07F10403 		add	r3, r7, #4
 3014 0514 1B68     		ldr	r3, [r3, #0]
 3015 0516 B3F88830 		ldrh	r3, [r3, #136]
 3016 051a 1BB2     		sxth	r3, r3
 3017 051c D31A     		subs	r3, r2, r3
 3018 051e 07EE903A 		fmsr	s15, r3	@ int
 3019 0522 B8EEE77A 		fsitos	s14, s15
 3020 0526 5FED2D7A 		flds	s15, .L106+12
 3021 052a 67EE277A 		fmuls	s15, s14, s15
 3022 052e C7ED427A 		fsts	s15, [r7, #264]
 623:../Task.cpp   **** 				data.y = int(temp[1] - this->Offset_A[1]) * LSB_A;
 3023              		.loc 5 623 0
 3024 0532 B7F81631 		ldrh	r3, [r7, #278]
 3025 0536 1AB2     		sxth	r2, r3
 3026 0538 07F10403 		add	r3, r7, #4
 3027 053c 1B68     		ldr	r3, [r3, #0]
 3028 053e B3F88A30 		ldrh	r3, [r3, #138]
 3029 0542 1BB2     		sxth	r3, r3
 3030 0544 D31A     		subs	r3, r2, r3
 3031 0546 07EE903A 		fmsr	s15, r3	@ int
 3032 054a B8EEE77A 		fsitos	s14, s15
 3033 054e 5FED377A 		flds	s15, .L106+12
 3034 0552 67EE277A 		fmuls	s15, s14, s15
 3035 0556 C7ED437A 		fsts	s15, [r7, #268]
 624:../Task.cpp   **** 				data.z = int(temp[2] - this->Offset_A[2]) * LSB_A;
 3036              		.loc 5 624 0
 3037 055a B7F81831 		ldrh	r3, [r7, #280]
 3038 055e 1AB2     		sxth	r2, r3
 3039 0560 07F10403 		add	r3, r7, #4
 3040 0564 1B68     		ldr	r3, [r3, #0]
 3041 0566 B3F88C30 		ldrh	r3, [r3, #140]
 3042 056a 1BB2     		sxth	r3, r3
 3043 056c D31A     		subs	r3, r2, r3
 3044 056e 07EE903A 		fmsr	s15, r3	@ int
 3045 0572 B8EEE77A 		fsitos	s14, s15
 3046 0576 5FED417A 		flds	s15, .L106+12
 3047 057a 67EE277A 		fmuls	s15, s14, s15
 3048 057e C7ED447A 		fsts	s15, [r7, #272]
 625:../Task.cpp   **** 
 626:../Task.cpp   **** 				cbAcc.put(data);
 3049              		.loc 5 626 0
 3050 0582 07F58473 		add	r3, r7, #264
 3051 0586 40F20000 		movw	r0, #:lower16:cbAcc
 3052 058a C0F20000 		movt	r0, #:upper16:cbAcc
 3053 058e 1946     		mov	r1, r3
 3054 0590 FFF7FEFF 		bl	_ZN5RODOS10CommBufferI4DataE3putERS1_
 3055              	.LBE37:
 3056              	.LBB38:
 627:../Task.cpp   **** 			}
 628:../Task.cpp   **** 			// ******************
 629:../Task.cpp   **** 
 630:../Task.cpp   **** 			// Gyroscope:
 631:../Task.cpp   **** 			{
 632:../Task.cpp   **** 				int16_t temp[3] = { 0, 0, 0 };
 3057              		.loc 5 632 0
 3058 0594 4FF00003 		mov	r3, #0
 3059 0598 A7F80031 		strh	r3, [r7, #256]	@ movhi
 3060 059c 4FF00003 		mov	r3, #0
 3061 05a0 A7F80231 		strh	r3, [r7, #258]	@ movhi
 3062 05a4 4FF00003 		mov	r3, #0
 3063 05a8 A7F80431 		strh	r3, [r7, #260]	@ movhi
 633:../Task.cpp   **** 				readSensor6Bytes(temp, LSM9DS1_AG, OUT_X_G);
 3064              		.loc 5 633 0
 3065 05ac 07F58073 		add	r3, r7, #256
 3066 05b0 1846     		mov	r0, r3
 3067 05b2 4FF06B01 		mov	r1, #107
 3068 05b6 4FF01802 		mov	r2, #24
 3069 05ba FFF7FEFF 		bl	_ZL16readSensor6BytesRA3_shh
 634:../Task.cpp   **** 
 635:../Task.cpp   **** 				Data data;
 636:../Task.cpp   **** 				data.x = int(temp[0] - this->Offset_G[0]) * LSB_G;
 3070              		.loc 5 636 0
 3071 05be B7F80031 		ldrh	r3, [r7, #256]
 3072 05c2 1AB2     		sxth	r2, r3
 3073 05c4 07F10403 		add	r3, r7, #4
 3074 05c8 1B68     		ldr	r3, [r3, #0]
 3075 05ca B3F89430 		ldrh	r3, [r3, #148]
 3076 05ce 1BB2     		sxth	r3, r3
 3077 05d0 D31A     		subs	r3, r2, r3
 3078 05d2 07EE903A 		fmsr	s15, r3	@ int
 3079 05d6 B8EEE77A 		fsitos	s14, s15
 3080 05da 5FED597A 		flds	s15, .L106+16
 3081 05de 67EE277A 		fmuls	s15, s14, s15
 3082 05e2 C7ED3D7A 		fsts	s15, [r7, #244]
 637:../Task.cpp   **** 				data.y = int(temp[1] - this->Offset_G[1]) * LSB_G;
 3083              		.loc 5 637 0
 3084 05e6 B7F80231 		ldrh	r3, [r7, #258]
 3085 05ea 1AB2     		sxth	r2, r3
 3086 05ec 07F10403 		add	r3, r7, #4
 3087 05f0 1B68     		ldr	r3, [r3, #0]
 3088 05f2 B3F89630 		ldrh	r3, [r3, #150]
 3089 05f6 1BB2     		sxth	r3, r3
 3090 05f8 D31A     		subs	r3, r2, r3
 3091 05fa 07EE903A 		fmsr	s15, r3	@ int
 3092 05fe B8EEE77A 		fsitos	s14, s15
 3093 0602 5FED637A 		flds	s15, .L106+16
 3094 0606 67EE277A 		fmuls	s15, s14, s15
 3095 060a C7ED3E7A 		fsts	s15, [r7, #248]
 638:../Task.cpp   **** 				data.z = int(temp[2] - this->Offset_G[2]) * LSB_G;
 3096              		.loc 5 638 0
 3097 060e B7F80431 		ldrh	r3, [r7, #260]
 3098 0612 1AB2     		sxth	r2, r3
 3099 0614 07F10403 		add	r3, r7, #4
 3100 0618 1B68     		ldr	r3, [r3, #0]
 3101 061a B3F89830 		ldrh	r3, [r3, #152]
 3102 061e 1BB2     		sxth	r3, r3
 3103 0620 D31A     		subs	r3, r2, r3
 3104 0622 07EE903A 		fmsr	s15, r3	@ int
 3105 0626 B8EEE77A 		fsitos	s14, s15
 3106 062a 5FED6D7A 		flds	s15, .L106+16
 3107 062e 67EE277A 		fmuls	s15, s14, s15
 3108 0632 C7ED3F7A 		fsts	s15, [r7, #252]
 639:../Task.cpp   **** 
 640:../Task.cpp   **** 				cbGyr.put(data);
 3109              		.loc 5 640 0
 3110 0636 07F1F403 		add	r3, r7, #244
 3111 063a 40F20000 		movw	r0, #:lower16:cbGyr
 3112 063e C0F20000 		movt	r0, #:upper16:cbGyr
 3113 0642 1946     		mov	r1, r3
 3114 0644 FFF7FEFF 		bl	_ZN5RODOS10CommBufferI4DataE3putERS1_
 3115              	.LBE38:
 3116              	.LBB39:
 641:../Task.cpp   **** 			}
 642:../Task.cpp   **** 			// ******************
 643:../Task.cpp   **** 
 644:../Task.cpp   **** 			// Magnetometer:
 645:../Task.cpp   **** 			{
 646:../Task.cpp   **** 				int16_t temp[3] = { 0, 0, 0 };
 3117              		.loc 5 646 0
 3118 0648 4FF00003 		mov	r3, #0
 3119 064c A7F8EC30 		strh	r3, [r7, #236]	@ movhi
 3120 0650 4FF00003 		mov	r3, #0
 3121 0654 A7F8EE30 		strh	r3, [r7, #238]	@ movhi
 3122 0658 4FF00003 		mov	r3, #0
 3123 065c A7F8F030 		strh	r3, [r7, #240]	@ movhi
 647:../Task.cpp   **** 				readSensor6Bytes(temp, LSM9DS1_M, OUT_X_L_M);
 3124              		.loc 5 647 0
 3125 0660 07F1EC03 		add	r3, r7, #236
 3126 0664 1846     		mov	r0, r3
 3127 0666 4FF01E01 		mov	r1, #30
 3128 066a 4FF02802 		mov	r2, #40
 3129 066e FFF7FEFF 		bl	_ZL16readSensor6BytesRA3_shh
 648:../Task.cpp   **** 
 649:../Task.cpp   **** 				Data data;
 650:../Task.cpp   **** 				data.x = ((((temp[0] - this->Offset_M[0][0])
 3130              		.loc 5 650 0
 3131 0672 B7F8EC30 		ldrh	r3, [r7, #236]
 651:../Task.cpp   **** 						/ (this->Offset_M[0][1] - this->Offset_M[0][0])) * 2)
 652:../Task.cpp   **** 						- 1) * LSB_M;
 3132              		.loc 5 652 0
 3133 0676 1AB2     		sxth	r2, r3
 650:../Task.cpp   **** 				data.x = ((((temp[0] - this->Offset_M[0][0])
 3134              		.loc 5 650 0
 3135 0678 07F10403 		add	r3, r7, #4
 3136 067c 1B68     		ldr	r3, [r3, #0]
 3137 067e B3F8A030 		ldrh	r3, [r3, #160]
 3138              		.loc 5 652 0
 3139 0682 1BB2     		sxth	r3, r3
 3140 0684 D21A     		subs	r2, r2, r3
 651:../Task.cpp   **** 						/ (this->Offset_M[0][1] - this->Offset_M[0][0])) * 2)
 3141              		.loc 5 651 0
 3142 0686 07F10403 		add	r3, r7, #4
 3143 068a 1B68     		ldr	r3, [r3, #0]
 3144 068c B3F8A230 		ldrh	r3, [r3, #162]
 3145              		.loc 5 652 0
 3146 0690 19B2     		sxth	r1, r3
 651:../Task.cpp   **** 						/ (this->Offset_M[0][1] - this->Offset_M[0][0])) * 2)
 3147              		.loc 5 651 0
 3148 0692 07F10403 		add	r3, r7, #4
 3149 0696 1B68     		ldr	r3, [r3, #0]
 3150 0698 B3F8A030 		ldrh	r3, [r3, #160]
 3151              		.loc 5 652 0
 3152 069c 1BB2     		sxth	r3, r3
 3153 069e CB1A     		subs	r3, r1, r3
 3154 06a0 92FBF3F3 		sdiv	r3, r2, r3
 3155 06a4 4FEA4303 		lsl	r3, r3, #1
 3156 06a8 03F1FF33 		add	r3, r3, #-1
 3157 06ac 07EE903A 		fmsr	s15, r3	@ int
 3158 06b0 B8EEE77A 		fsitos	s14, s15
 3159 06b4 5FED8F7A 		flds	s15, .L106+20
 3160 06b8 67EE277A 		fmuls	s15, s14, s15
 3161 06bc C7ED387A 		fsts	s15, [r7, #224]
 653:../Task.cpp   **** 				data.y = ((((temp[1] - this->Offset_M[1][0])
 3162              		.loc 5 653 0
 3163 06c0 B7F8EE30 		ldrh	r3, [r7, #238]
 654:../Task.cpp   **** 						/ (this->Offset_M[1][1] - this->Offset_M[1][0])) * 2)
 655:../Task.cpp   **** 						- 1) * LSB_M;
 3164              		.loc 5 655 0
 3165 06c4 1AB2     		sxth	r2, r3
 653:../Task.cpp   **** 				data.y = ((((temp[1] - this->Offset_M[1][0])
 3166              		.loc 5 653 0
 3167 06c6 07F10403 		add	r3, r7, #4
 3168 06ca 1B68     		ldr	r3, [r3, #0]
 3169 06cc B3F8A430 		ldrh	r3, [r3, #164]
 3170              		.loc 5 655 0
 3171 06d0 1BB2     		sxth	r3, r3
 3172 06d2 D21A     		subs	r2, r2, r3
 654:../Task.cpp   **** 						/ (this->Offset_M[1][1] - this->Offset_M[1][0])) * 2)
 3173              		.loc 5 654 0
 3174 06d4 07F10403 		add	r3, r7, #4
 3175 06d8 1B68     		ldr	r3, [r3, #0]
 3176 06da B3F8A630 		ldrh	r3, [r3, #166]
 3177              		.loc 5 655 0
 3178 06de 19B2     		sxth	r1, r3
 654:../Task.cpp   **** 						/ (this->Offset_M[1][1] - this->Offset_M[1][0])) * 2)
 3179              		.loc 5 654 0
 3180 06e0 07F10403 		add	r3, r7, #4
 3181 06e4 1B68     		ldr	r3, [r3, #0]
 3182 06e6 B3F8A430 		ldrh	r3, [r3, #164]
 3183              		.loc 5 655 0
 3184 06ea 1BB2     		sxth	r3, r3
 3185 06ec CB1A     		subs	r3, r1, r3
 3186 06ee 92FBF3F3 		sdiv	r3, r2, r3
 3187 06f2 4FEA4303 		lsl	r3, r3, #1
 3188 06f6 03F1FF33 		add	r3, r3, #-1
 3189 06fa 07EE903A 		fmsr	s15, r3	@ int
 3190 06fe B8EEE77A 		fsitos	s14, s15
 3191 0702 5FEDA27A 		flds	s15, .L106+20
 3192 0706 67EE277A 		fmuls	s15, s14, s15
 3193 070a C7ED397A 		fsts	s15, [r7, #228]
 656:../Task.cpp   **** 				data.z = ((((temp[2] - this->Offset_M[2][0])
 3194              		.loc 5 656 0
 3195 070e B7F8F030 		ldrh	r3, [r7, #240]
 657:../Task.cpp   **** 						/ (this->Offset_M[2][1] - this->Offset_M[2][0])) * 2)
 658:../Task.cpp   **** 						- 1) * LSB_M;
 3196              		.loc 5 658 0
 3197 0712 1AB2     		sxth	r2, r3
 656:../Task.cpp   **** 				data.z = ((((temp[2] - this->Offset_M[2][0])
 3198              		.loc 5 656 0
 3199 0714 07F10403 		add	r3, r7, #4
 3200 0718 1B68     		ldr	r3, [r3, #0]
 3201 071a B3F8A830 		ldrh	r3, [r3, #168]
 3202              		.loc 5 658 0
 3203 071e 1BB2     		sxth	r3, r3
 3204 0720 D21A     		subs	r2, r2, r3
 657:../Task.cpp   **** 						/ (this->Offset_M[2][1] - this->Offset_M[2][0])) * 2)
 3205              		.loc 5 657 0
 3206 0722 07F10403 		add	r3, r7, #4
 3207 0726 1B68     		ldr	r3, [r3, #0]
 3208 0728 B3F8AA30 		ldrh	r3, [r3, #170]
 3209              		.loc 5 658 0
 3210 072c 19B2     		sxth	r1, r3
 657:../Task.cpp   **** 						/ (this->Offset_M[2][1] - this->Offset_M[2][0])) * 2)
 3211              		.loc 5 657 0
 3212 072e 07F10403 		add	r3, r7, #4
 3213 0732 1B68     		ldr	r3, [r3, #0]
 3214 0734 B3F8A830 		ldrh	r3, [r3, #168]
 3215              		.loc 5 658 0
 3216 0738 1BB2     		sxth	r3, r3
 3217 073a CB1A     		subs	r3, r1, r3
 3218 073c 92FBF3F3 		sdiv	r3, r2, r3
 3219 0740 4FEA4303 		lsl	r3, r3, #1
 3220 0744 03F1FF33 		add	r3, r3, #-1
 3221 0748 07EE903A 		fmsr	s15, r3	@ int
 3222 074c B8EEE77A 		fsitos	s14, s15
 3223 0750 5FEDB67A 		flds	s15, .L106+20
 3224 0754 67EE277A 		fmuls	s15, s14, s15
 3225 0758 C7ED3A7A 		fsts	s15, [r7, #232]
 659:../Task.cpp   **** 
 660:../Task.cpp   **** 				cbMag.put(data);
 3226              		.loc 5 660 0
 3227 075c 07F1E003 		add	r3, r7, #224
 3228 0760 40F20000 		movw	r0, #:lower16:cbMag
 3229 0764 C0F20000 		movt	r0, #:upper16:cbMag
 3230 0768 1946     		mov	r1, r3
 3231 076a FFF7FEFF 		bl	_ZN5RODOS10CommBufferI4DataE3putERS1_
 3232              	.LBE39:
 3233              	.LBB40:
 661:../Task.cpp   **** 			}
 662:../Task.cpp   **** 			// ******************
 663:../Task.cpp   **** 
 664:../Task.cpp   **** 			// Temperatur:
 665:../Task.cpp   **** 			{
 666:../Task.cpp   **** 				int16_t _temp = 0;
 3234              		.loc 5 666 0
 3235 076e 4FF00003 		mov	r3, #0
 3236 0772 A7F8DE30 		strh	r3, [r7, #222]	@ movhi
 667:../Task.cpp   **** 				readSensor2Bytes(_temp, LSM9DS1_AG, OUT_TEMP_L);
 3237              		.loc 5 667 0
 3238 0776 07F1DE03 		add	r3, r7, #222
 3239 077a 1846     		mov	r0, r3
 3240 077c 4FF06B01 		mov	r1, #107
 3241 0780 4FF01502 		mov	r2, #21
 3242 0784 FFF7FEFF 		bl	_ZL16readSensor2BytesRshh
 668:../Task.cpp   **** 
 669:../Task.cpp   **** 				float temp = (_temp / 16.0f) + 25.0f;
 3243              		.loc 5 669 0
 3244 0788 B7F8DE30 		ldrh	r3, [r7, #222]
 3245 078c 1BB2     		sxth	r3, r3
 3246 078e 07EE903A 		fmsr	s15, r3	@ int
 3247 0792 B8EEE77A 		fsitos	s14, s15
 3248 0796 F3EE007A 		fconsts	s15, #48
 3249 079a 87EE277A 		fdivs	s14, s14, s15
 3250 079e F3EE097A 		fconsts	s15, #57
 3251 07a2 77EE277A 		fadds	s15, s14, s15
 3252 07a6 C7ED367A 		fsts	s15, [r7, #216]
 670:../Task.cpp   **** 
 671:../Task.cpp   **** 				cbTemp.put(temp);
 3253              		.loc 5 671 0
 3254 07aa 07F1D803 		add	r3, r7, #216
 3255 07ae 40F20000 		movw	r0, #:lower16:cbTemp
 3256 07b2 C0F20000 		movt	r0, #:upper16:cbTemp
 3257 07b6 1946     		mov	r1, r3
 3258 07b8 FFF7FEFF 		bl	_ZN5RODOS10CommBufferIfE3putERf
 3259              	.LBE40:
 672:../Task.cpp   **** 			}
 673:../Task.cpp   **** 
 674:../Task.cpp   **** 			// mit Interval suspenden:
 675:../Task.cpp   **** 			suspendCallerUntil(NOW()+ this->interval*MILLISECONDS);
 3260              		.loc 5 675 0
 3261 07bc FFF7FEFF 		bl	_ZN5RODOS9TimeModel14getNanosecondsEv
 3262 07c0 0446     		mov	r4, r0
 3263 07c2 0D46     		mov	r5, r1
 3264 07c4 07F10403 		add	r3, r7, #4
 3265 07c8 1B68     		ldr	r3, [r3, #0]
 3266 07ca D3F88410 		ldr	r1, [r3, #132]
 3267 07ce 0A46     		mov	r2, r1
 3268 07d0 4FF00003 		mov	r3, #0
 3269 07d4 44F24021 		movw	r1, #16960
 3270 07d8 C0F20F01 		movt	r1, 15
 3271 07dc 01FB03F0 		mul	r0, r1, r3
 3272 07e0 4FF00001 		mov	r1, #0
 3273 07e4 01FB02F1 		mul	r1, r1, r2
 3274 07e8 4018     		adds	r0, r0, r1
 3275 07ea 44F24021 		movw	r1, #16960
 3276 07ee C0F20F01 		movt	r1, 15
 3277 07f2 A2FB0123 		umull	r2, r3, r2, r1
 3278 07f6 C118     		adds	r1, r0, r3
 3279 07f8 0B46     		mov	r3, r1
 3280 07fa 1219     		adds	r2, r2, r4
 3281 07fc 43EB0503 		adc	r3, r3, r5
 3282 0800 1046     		mov	r0, r2
 3283 0802 1946     		mov	r1, r3
 3284 0804 4FF00002 		mov	r2, #0
 3285 0808 FFF7FEFF 		bl	_ZN5RODOS6Thread18suspendCallerUntilExPv
 3286              	.LBE23:
 500:../Task.cpp   **** 		while (1) {
 3287              		.loc 5 500 0
 3288 080c 01E4     		b	.L101
 3289              	.LBE22:
 3290              		.cfi_endproc
 3291              	.LFE215:
 3293              		.global	spT
 3294 080e 00BF     		.section	.bss.spT,"aw",%nobits
 3295              		.align	3
 3298              	spT:
 3299 0000 00000000 		.space	192
 3299      00000000 
 3299      00000000 
 3299      00000000 
 3299      00000000 
 3300              		.section	.text._ZN9telemetryC2Ev,"axG",%progbits,_ZN9telemetryC5Ev,comdat
 3301              		.align	2
 3302              		.weak	_ZN9telemetryC2Ev
 3303              		.thumb
 3304              		.thumb_func
 3306              	_ZN9telemetryC2Ev:
 3307              	.LFB217:
 676:../Task.cpp   **** 		}
 677:../Task.cpp   **** 	}
 678:../Task.cpp   **** }spT; // SignalProcessingThread
 679:../Task.cpp   **** 
 680:../Task.cpp   **** //*******************************************************************************
 681:../Task.cpp   **** 
 682:../Task.cpp   **** class telemetry: public Thread, public SubscriberReceiver<Command> {
 683:../Task.cpp   **** 	uint interval;
 684:../Task.cpp   **** 
 685:../Task.cpp   **** 	// Beinhaltet die zuletzt ber das Topic gesendeten Sensorwerte
 686:../Task.cpp   **** 	float val_acc[3];
 687:../Task.cpp   **** 	float val_gyro[3];
 688:../Task.cpp   **** 	float val_mag[3];
 689:../Task.cpp   **** 	float val_temp;
 690:../Task.cpp   **** 
 691:../Task.cpp   **** 	enum tel {
 692:../Task.cpp   **** 		all, acc, gyro, mag, temp, orient
 693:../Task.cpp   **** 	} pt; // legt fest, welche Telemetriedaten in einem Interval gepostet werden sollen. Wird mit 0 (a
 694:../Task.cpp   **** 
 695:../Task.cpp   **** public:
 696:../Task.cpp   **** 	telemetry() :
 3308              		.loc 5 696 0
 3309              		.cfi_startproc
 3310              		@ args = 0, pretend = 0, frame = 8
 3311              		@ frame_needed = 1, uses_anonymous_args = 0
 3312 0000 80B5     		push	{r7, lr}
 3313              	.LCFI88:
 3314              		.cfi_def_cfa_offset 8
 3315              		.cfi_offset 7, -8
 3316              		.cfi_offset 14, -4
 3317 0002 82B0     		sub	sp, sp, #8
 3318              	.LCFI89:
 3319              		.cfi_def_cfa_offset 16
 3320 0004 00AF     		add	r7, sp, #0
 3321              	.LCFI90:
 3322              		.cfi_def_cfa_register 7
 3323 0006 7860     		str	r0, [r7, #4]
 3324              	.LBB41:
 697:../Task.cpp   **** 			SubscriberReceiver<Command>(TopicTelemetry,
 698:../Task.cpp   **** 					"TopicIntervalSignalProcessingReceiver"), interval(1500), pt(
 699:../Task.cpp   **** 					(tel) 0) {
 3325              		.loc 5 699 0
 3326 0008 7B68     		ldr	r3, [r7, #4]
 3327 000a 1846     		mov	r0, r3
 3328 000c 40F20001 		movw	r1, #:lower16:.LC7
 3329 0010 C0F20001 		movt	r1, #:upper16:.LC7
 3330 0014 4FF06402 		mov	r2, #100
 3331 0018 4FF4FA63 		mov	r3, #2000
 3332 001c FFF7FEFF 		bl	_ZN5RODOS6ThreadC2EPKcll
 3333 0020 7B68     		ldr	r3, [r7, #4]
 3334 0022 03F15003 		add	r3, r3, #80
 3335 0026 1846     		mov	r0, r3
 3336 0028 40F20001 		movw	r1, #:lower16:TopicTelemetry
 3337 002c C0F20001 		movt	r1, #:upper16:TopicTelemetry
 3338 0030 40F20002 		movw	r2, #:lower16:.LC8
 3339 0034 C0F20002 		movt	r2, #:upper16:.LC8
 3340 0038 FFF7FEFF 		bl	_ZN5RODOS18SubscriberReceiverI7CommandEC2ERNS_14TopicInterfaceEPKc
 3341 003c 7B68     		ldr	r3, [r7, #4]
 3342 003e 0A4A     		ldr	r2, .L111
 3343 0040 1A60     		str	r2, [r3, #0]
 3344 0042 7B68     		ldr	r3, [r7, #4]
 3345 0044 094A     		ldr	r2, .L111+4
 3346 0046 1A65     		str	r2, [r3, #80]
 3347 0048 7B68     		ldr	r3, [r7, #4]
 3348 004a 40F2DC52 		movw	r2, #1500
 3349 004e C3F88420 		str	r2, [r3, #132]
 3350 0052 7B68     		ldr	r3, [r7, #4]
 3351 0054 4FF00002 		mov	r2, #0
 3352 0058 83F8B020 		strb	r2, [r3, #176]
 3353              	.LBE41:
 700:../Task.cpp   **** 	}
 3354              		.loc 5 700 0
 3355 005c 7B68     		ldr	r3, [r7, #4]
 3356 005e 1846     		mov	r0, r3
 3357 0060 07F10807 		add	r7, r7, #8
 3358 0064 BD46     		mov	sp, r7
 3359 0066 80BD     		pop	{r7, pc}
 3360              	.L112:
 3361              		.align	2
 3362              	.L111:
 3363 0068 08000000 		.word	_ZTV9telemetry+8
 3364 006c 24000000 		.word	_ZTV9telemetry+36
 3365              		.cfi_endproc
 3366              	.LFE217:
 3368              		.weak	_ZN9telemetryC1Ev
 3369              		.thumb_set _ZN9telemetryC1Ev,_ZN9telemetryC2Ev
 3370              		.section	.text._ZN9telemetry3putER7Command,"axG",%progbits,_ZN9telemetry3putER7Command,comdat
 3371              		.align	2
 3372              		.weak	_ZN9telemetry3putER7Command
 3373              		.thumb
 3374              		.thumb_func
 3376              	_ZN9telemetry3putER7Command:
 3377              	.LFB219:
 701:../Task.cpp   **** 
 702:../Task.cpp   **** 	void put(Command& data) {
 3378              		.loc 5 702 0
 3379              		.cfi_startproc
 3380              		@ args = 0, pretend = 0, frame = 16
 3381              		@ frame_needed = 1, uses_anonymous_args = 0
 3382              		@ link register save eliminated.
 3383 0000 80B4     		push	{r7}
 3384              	.LCFI91:
 3385              		.cfi_def_cfa_offset 4
 3386              		.cfi_offset 7, -4
 3387 0002 85B0     		sub	sp, sp, #20
 3388              	.LCFI92:
 3389              		.cfi_def_cfa_offset 24
 3390 0004 00AF     		add	r7, sp, #0
 3391              	.LCFI93:
 3392              		.cfi_def_cfa_register 7
 3393 0006 7860     		str	r0, [r7, #4]
 3394 0008 3960     		str	r1, [r7, #0]
 3395              	.LBB42:
 703:../Task.cpp   **** 		Command* _data = (Command*) &data;
 3396              		.loc 5 703 0
 3397 000a 3B68     		ldr	r3, [r7, #0]
 3398 000c FB60     		str	r3, [r7, #12]
 704:../Task.cpp   **** 
 705:../Task.cpp   **** 		switch (_data->id) {
 3399              		.loc 5 705 0
 3400 000e FB68     		ldr	r3, [r7, #12]
 3401 0010 1B78     		ldrb	r3, [r3, #0]	@ zero_extendqisi2
 3402 0012 A3F14103 		sub	r3, r3, #65
 3403 0016 132B     		cmp	r3, #19
 3404 0018 23D8     		bhi	.L113
 3405 001a 4FF00102 		mov	r2, #1
 3406 001e 02FA03F2 		lsl	r2, r2, r3
 3407 0022 45F2C103 		movw	r3, #20673
 3408 0026 C0F20103 		movt	r3, 1
 3409 002a 1340     		ands	r3, r3, r2
 3410 002c 002B     		cmp	r3, #0
 3411 002e 0CD1     		bne	.L115
 3412 0030 02F40023 		and	r3, r2, #524288
 3413 0034 002B     		cmp	r3, #0
 3414 0036 14D0     		beq	.L113
 3415              	.L116:
 706:../Task.cpp   **** 		case 'T':
 707:../Task.cpp   **** 			this->interval = _data->value;
 3416              		.loc 5 707 0
 3417 0038 FB68     		ldr	r3, [r7, #12]
 3418 003a D3ED017A 		flds	s15, [r3, #4]
 3419 003e FCEEE77A 		ftouizs	s15, s15
 3420 0042 7B68     		ldr	r3, [r7, #4]
 3421 0044 C3ED217A 		fsts	s15, [r3, #132]	@ int
 708:../Task.cpp   **** 			break;
 3422              		.loc 5 708 0
 3423 0048 0BE0     		b	.L113
 3424              	.L115:
 709:../Task.cpp   **** 		case 'Q':
 710:../Task.cpp   **** 		case 'A':
 711:../Task.cpp   **** 		case 'G':
 712:../Task.cpp   **** 		case 'M':
 713:../Task.cpp   **** 		case 'H':
 714:../Task.cpp   **** 		case 'O':
 715:../Task.cpp   **** 			this->pt = (tel) (_data->value);
 3425              		.loc 5 715 0
 3426 004a FB68     		ldr	r3, [r7, #12]
 3427 004c D3ED017A 		flds	s15, [r3, #4]
 3428 0050 FCEEE77A 		ftouizs	s15, s15
 3429 0054 17EE903A 		fmrs	r3, s15	@ int
 3430 0058 DAB2     		uxtb	r2, r3
 3431 005a 7B68     		ldr	r3, [r7, #4]
 3432 005c 83F8B020 		strb	r2, [r3, #176]
 716:../Task.cpp   **** 			break;
 3433              		.loc 5 716 0
 3434 0060 00BF     		nop
 3435              	.L113:
 3436              	.LBE42:
 717:../Task.cpp   **** 		}
 718:../Task.cpp   **** 	}
 3437              		.loc 5 718 0
 3438 0062 07F11407 		add	r7, r7, #20
 3439 0066 BD46     		mov	sp, r7
 3440 0068 80BC     		pop	{r7}
 3441 006a 7047     		bx	lr
 3442              		.cfi_endproc
 3443              	.LFE219:
 3445              		.thumb_set .LTHUNK5,_ZN9telemetry3putER7Command
 3446              		.align	2
 3447              		.weak	_ZThn80_N9telemetry3putER7Command
 3448              		.thumb
 3449              		.thumb_func
 3451              	_ZThn80_N9telemetry3putER7Command:
 3452 006c A0F15000 		sub	r0, r0, #80
 3453 0070 C6E7     		b	.LTHUNK5
 3455 0072 00BF     		.section	.rodata
 3456 0356 0000     		.align	2
 3457              	.LC18:
 3458 0358 4163633A 		.ascii	"Acc: x=%3.8f g, y=%3.8f g, z=%3.8f g\000\000"
 3458      20783D25 
 3458      332E3866 
 3458      20672C20 
 3458      793D2533 
 3459 037e 0000     		.align	2
 3460              	.LC19:
 3461 0380 4779726F 		.ascii	"Gyro: x=%3.8f dps, y=%3.8f dps, z=%3.8f dps\000\000"
 3461      3A20783D 
 3461      25332E38 
 3461      66206470 
 3461      732C2079 
 3462 03ad 000000   		.align	2
 3463              	.LC20:
 3464 03b0 4D61673A 		.ascii	"Mag: x=%3.8f gauss, y=%3.8f gauss, z=%3.8f gauss\000"
 3464      20783D25 
 3464      332E3866 
 3464      20676175 
 3464      73732C20 
 3465 03e1 00       		.ascii	"\000"
 3466 03e2 0000     		.align	2
 3467              	.LC21:
 3468 03e4 54656D70 		.ascii	"Temp: x=%3.5f C\000\000"
 3468      3A20783D 
 3468      25332E35 
 3468      66204300 
 3468      00
 3469 03f5 000000   		.align	2
 3470              	.LC22:
 3471 03f8 726F6C6C 		.ascii	"roll=%4.4f, pitch=%4.4f, yaw=%4.4f\000\000"
 3471      3D25342E 
 3471      34662C20 
 3471      70697463 
 3471      683D2534 
 3472              		.align	2
 3473              	.LC23:
 3474 041c 0A00     		.ascii	"\012\000"
 3475              		.section	.text._ZN9telemetry3runEv,"axG",%progbits,_ZN9telemetry3runEv,comdat
 3476              		.align	2
 3477              		.weak	_ZN9telemetry3runEv
 3478              		.thumb
 3479              		.thumb_func
 3481              	_ZN9telemetry3runEv:
 3482              	.LFB220:
 719:../Task.cpp   **** 
 720:../Task.cpp   **** 	void run(void) {
 3483              		.loc 5 720 0
 3484              		.cfi_startproc
 3485              		@ args = 0, pretend = 0, frame = 208
 3486              		@ frame_needed = 1, uses_anonymous_args = 0
 3487 0000 2DE9B043 		push	{r4, r5, r7, r8, r9, lr}
 3488              	.LCFI94:
 3489              		.cfi_def_cfa_offset 24
 3490              		.cfi_offset 4, -24
 3491              		.cfi_offset 5, -20
 3492              		.cfi_offset 7, -16
 3493              		.cfi_offset 8, -12
 3494              		.cfi_offset 9, -8
 3495              		.cfi_offset 14, -4
 3496 0004 B8B0     		sub	sp, sp, #224
 3497              	.LCFI95:
 3498              		.cfi_def_cfa_offset 248
 3499 0006 04AF     		add	r7, sp, #16
 3500              	.LCFI96:
 3501              		.cfi_def_cfa 7, 232
 3502 0008 7860     		str	r0, [r7, #4]
 3503              	.L126:
 3504              	.LBB43:
 3505              	.LBB44:
 3506              	.LBB45:
 721:../Task.cpp   **** 		while (1) {
 722:../Task.cpp   **** 			if (spT.isCalibrated()) {
 3507              		.loc 5 722 0
 3508 000a 40F20000 		movw	r0, #:lower16:spT
 3509 000e C0F20000 		movt	r0, #:upper16:spT
 3510 0012 FFF7FEFF 		bl	_ZN16SignalProcessing12isCalibratedEv
 3511 0016 0346     		mov	r3, r0
 3512 0018 002B     		cmp	r3, #0
 3513 001a 00F00482 		beq	.L118
 3514              	.LBB46:
 723:../Task.cpp   **** 				// ########################### AUSGABE TELEMETRIE ###########################
 724:../Task.cpp   **** 				// zugehrige LED toggeln:
 725:../Task.cpp   **** 				ToggleLED(LED[1], 500);
 3515              		.loc 5 725 0
 3516 001e 0D48     		ldr	r0, .L131
 3517 0020 4FF4FA71 		mov	r1, #500
 3518 0024 FFF7FEFF 		bl	_ZL9ToggleLEDRN5RODOS8HAL_GPIOEm
 3519              	.LBB47:
 726:../Task.cpp   **** 
 727:../Task.cpp   **** 				switch ((int) this->pt) {
 3520              		.loc 5 727 0
 3521 0028 7B68     		ldr	r3, [r7, #4]
 3522 002a 93F8B030 		ldrb	r3, [r3, #176]	@ zero_extendqisi2
 3523 002e 052B     		cmp	r3, #5
 3524 0030 00F2EF81 		bhi	.L119
 3525 0034 01A2     		adr	r2, .L125
 3526 0036 52F823F0 		ldr	pc, [r2, r3, lsl #2]
 3527 003a 00BF     		.align	2
 3528              	.L125:
 3529 003c 59000000 		.word	.L120+1
 3530 0040 59000000 		.word	.L120+1
 3531 0044 D9000000 		.word	.L121+1
 3532 0048 DF010000 		.word	.L122+1
 3533 004c 5F020000 		.word	.L123+1
 3534 0050 B5020000 		.word	.L124+1
 3535              	.L132:
 3536              		.align	2
 3537              	.L131:
 3538 0054 1C000000 		.word	LED+28
 3539              	.L120:
 3540              	.LBB48:
 3541              	.LBB49:
 728:../Task.cpp   **** 				case 0: // bei all einfach alle Flle durchlaufen
 729:../Task.cpp   **** 				case 1: {
 730:../Task.cpp   **** 					// nur Acc
 731:../Task.cpp   **** 					const char* acc_msg =
 732:../Task.cpp   **** 							"Acc: x=%3.8f g, y=%3.8f g, z=%3.8f g\0";
 3542              		.loc 5 732 0
 3543 0058 40F20003 		movw	r3, #:lower16:.LC18
 3544 005c C0F20003 		movt	r3, #:upper16:.LC18
 3545 0060 C7F8CC30 		str	r3, [r7, #204]
 733:../Task.cpp   **** 
 734:../Task.cpp   **** 					char acc_str[58]; // 40
 735:../Task.cpp   **** 
 736:../Task.cpp   **** 					// Neuste Messwerte abrufen:
 737:../Task.cpp   **** 					Data data;
 738:../Task.cpp   **** 
 739:../Task.cpp   **** 					cbAcc.get(data);
 3546              		.loc 5 739 0
 3547 0064 07F1AC03 		add	r3, r7, #172
 3548 0068 40F20000 		movw	r0, #:lower16:cbAcc
 3549 006c C0F20000 		movt	r0, #:upper16:cbAcc
 3550 0070 1946     		mov	r1, r3
 3551 0072 FFF7FEFF 		bl	_ZN5RODOS10CommBufferI4DataE3getERS1_
 740:../Task.cpp   **** 
 741:../Task.cpp   **** 					sprintf(acc_str, acc_msg, data.x, data.y,
 742:../Task.cpp   **** 							data.z);
 3552              		.loc 5 742 0
 3553 0076 D7F8AC30 		ldr	r3, [r7, #172]	@ float
 3554 007a 1846     		mov	r0, r3	@ float
 3555 007c FFF7FEFF 		bl	__aeabi_f2d
 3556 0080 0446     		mov	r4, r0
 3557 0082 0D46     		mov	r5, r1
 3558 0084 D7F8B030 		ldr	r3, [r7, #176]	@ float
 3559 0088 1846     		mov	r0, r3	@ float
 3560 008a FFF7FEFF 		bl	__aeabi_f2d
 3561 008e 8046     		mov	r8, r0
 3562 0090 8946     		mov	r9, r1
 3563 0092 D7F8B430 		ldr	r3, [r7, #180]	@ float
 3564 0096 1846     		mov	r0, r3	@ float
 3565 0098 FFF7FEFF 		bl	__aeabi_f2d
 3566 009c 0246     		mov	r2, r0
 3567 009e 0B46     		mov	r3, r1
 3568 00a0 07F10801 		add	r1, r7, #8
 3569 00a4 CDE90089 		strd	r8, [sp]
 3570 00a8 CDE90223 		strd	r2, [sp, #8]
 3571 00ac 0846     		mov	r0, r1
 3572 00ae D7F8CC10 		ldr	r1, [r7, #204]
 3573 00b2 2246     		mov	r2, r4
 3574 00b4 2B46     		mov	r3, r5
 3575 00b6 FFF7FEFF 		bl	sprintf
 743:../Task.cpp   **** 
 744:../Task.cpp   **** 					writeUART(BT2UART, acc_str);
 3576              		.loc 5 744 0
 3577 00ba 07F10803 		add	r3, r7, #8
 3578 00be 40F20000 		movw	r0, #:lower16:BT2UART
 3579 00c2 C0F20000 		movt	r0, #:upper16:BT2UART
 3580 00c6 1946     		mov	r1, r3
 3581 00c8 FFF7FEFF 		bl	_ZL9writeUARTRN5RODOS8HAL_UARTEPKc
 3582              	.LBE49:
 745:../Task.cpp   **** 				}
 746:../Task.cpp   **** 					if (((int) this->pt) != 0)
 3583              		.loc 5 746 0
 3584 00cc 7B68     		ldr	r3, [r7, #4]
 3585 00ce 93F8B030 		ldrb	r3, [r3, #176]	@ zero_extendqisi2
 3586 00d2 002B     		cmp	r3, #0
 3587 00d4 40F09681 		bne	.L127
 3588              	.L121:
 3589              	.LBB50:
 747:../Task.cpp   **** 						break;
 748:../Task.cpp   **** 				case 2: {
 749:../Task.cpp   **** 					// nur Gyro
 750:../Task.cpp   **** 					const char* gyro_msg =
 751:../Task.cpp   **** 							"Gyro: x=%3.8f dps, y=%3.8f dps, z=%3.8f dps\0";
 3590              		.loc 5 751 0
 3591 00d8 40F20003 		movw	r3, #:lower16:.LC19
 3592 00dc C0F20003 		movt	r3, #:upper16:.LC19
 3593 00e0 C7F8C830 		str	r3, [r7, #200]
 752:../Task.cpp   **** 
 753:../Task.cpp   **** 					char gyro_str[65];
 754:../Task.cpp   **** 
 755:../Task.cpp   **** 					// Neuste Messwerte abrufen:
 756:../Task.cpp   **** 					Data data;
 757:../Task.cpp   **** 
 758:../Task.cpp   **** 					cbGyr.get(data);
 3594              		.loc 5 758 0
 3595 00e4 07F1A003 		add	r3, r7, #160
 3596 00e8 40F20000 		movw	r0, #:lower16:cbGyr
 3597 00ec C0F20000 		movt	r0, #:upper16:cbGyr
 3598 00f0 1946     		mov	r1, r3
 3599 00f2 FFF7FEFF 		bl	_ZN5RODOS10CommBufferI4DataE3getERS1_
 759:../Task.cpp   **** 
 760:../Task.cpp   **** 					sprintf(gyro_str, gyro_msg, data.x * 180.0 / M_PI,
 761:../Task.cpp   **** 							data.y * 180.0 / M_PI,
 762:../Task.cpp   **** 							data.z * 180.0 / M_PI);
 3600              		.loc 5 762 0
 3601 00f6 D7F8A030 		ldr	r3, [r7, #160]	@ float
 3602 00fa 1846     		mov	r0, r3	@ float
 3603 00fc FFF7FEFF 		bl	__aeabi_f2d
 3604 0100 0246     		mov	r2, r0
 3605 0102 0B46     		mov	r3, r1
 3606 0104 1046     		mov	r0, r2
 3607 0106 1946     		mov	r1, r3
 3608 0108 4FF00002 		mov	r2, #0
 3609 010c 4FF40043 		mov	r3, #32768
 3610 0110 C4F26603 		movt	r3, 16486
 3611 0114 FFF7FEFF 		bl	__aeabi_dmul
 3612 0118 0246     		mov	r2, r0
 3613 011a 0B46     		mov	r3, r1
 3614 011c 1046     		mov	r0, r2
 3615 011e 1946     		mov	r1, r3
 3616 0120 D5A3     		adr	r3, .L133
 3617 0122 D3E90023 		ldrd	r2, [r3]
 3618 0126 FFF7FEFF 		bl	__aeabi_ddiv
 3619 012a 0246     		mov	r2, r0
 3620 012c 0B46     		mov	r3, r1
 3621 012e 1446     		mov	r4, r2
 3622 0130 1D46     		mov	r5, r3
 3623 0132 D7F8A430 		ldr	r3, [r7, #164]	@ float
 3624 0136 1846     		mov	r0, r3	@ float
 3625 0138 FFF7FEFF 		bl	__aeabi_f2d
 3626 013c 0246     		mov	r2, r0
 3627 013e 0B46     		mov	r3, r1
 3628 0140 1046     		mov	r0, r2
 3629 0142 1946     		mov	r1, r3
 3630 0144 4FF00002 		mov	r2, #0
 3631 0148 4FF40043 		mov	r3, #32768
 3632 014c C4F26603 		movt	r3, 16486
 3633 0150 FFF7FEFF 		bl	__aeabi_dmul
 3634 0154 0246     		mov	r2, r0
 3635 0156 0B46     		mov	r3, r1
 3636 0158 1046     		mov	r0, r2
 3637 015a 1946     		mov	r1, r3
 3638 015c C6A3     		adr	r3, .L133
 3639 015e D3E90023 		ldrd	r2, [r3]
 3640 0162 FFF7FEFF 		bl	__aeabi_ddiv
 3641 0166 0246     		mov	r2, r0
 3642 0168 0B46     		mov	r3, r1
 3643 016a 9046     		mov	r8, r2
 3644 016c 9946     		mov	r9, r3
 3645 016e D7F8A830 		ldr	r3, [r7, #168]	@ float
 3646 0172 1846     		mov	r0, r3	@ float
 3647 0174 FFF7FEFF 		bl	__aeabi_f2d
 3648 0178 0246     		mov	r2, r0
 3649 017a 0B46     		mov	r3, r1
 3650 017c 1046     		mov	r0, r2
 3651 017e 1946     		mov	r1, r3
 3652 0180 4FF00002 		mov	r2, #0
 3653 0184 4FF40043 		mov	r3, #32768
 3654 0188 C4F26603 		movt	r3, 16486
 3655 018c FFF7FEFF 		bl	__aeabi_dmul
 3656 0190 0246     		mov	r2, r0
 3657 0192 0B46     		mov	r3, r1
 3658 0194 1046     		mov	r0, r2
 3659 0196 1946     		mov	r1, r3
 3660 0198 B7A3     		adr	r3, .L133
 3661 019a D3E90023 		ldrd	r2, [r3]
 3662 019e FFF7FEFF 		bl	__aeabi_ddiv
 3663 01a2 0246     		mov	r2, r0
 3664 01a4 0B46     		mov	r3, r1
 3665 01a6 07F10801 		add	r1, r7, #8
 3666 01aa CDE90089 		strd	r8, [sp]
 3667 01ae CDE90223 		strd	r2, [sp, #8]
 3668 01b2 0846     		mov	r0, r1
 3669 01b4 D7F8C810 		ldr	r1, [r7, #200]
 3670 01b8 2246     		mov	r2, r4
 3671 01ba 2B46     		mov	r3, r5
 3672 01bc FFF7FEFF 		bl	sprintf
 763:../Task.cpp   **** 
 764:../Task.cpp   **** 					writeUART(BT2UART, gyro_str);
 3673              		.loc 5 764 0
 3674 01c0 07F10803 		add	r3, r7, #8
 3675 01c4 40F20000 		movw	r0, #:lower16:BT2UART
 3676 01c8 C0F20000 		movt	r0, #:upper16:BT2UART
 3677 01cc 1946     		mov	r1, r3
 3678 01ce FFF7FEFF 		bl	_ZL9writeUARTRN5RODOS8HAL_UARTEPKc
 3679              	.LBE50:
 765:../Task.cpp   **** 				}
 766:../Task.cpp   **** 					if (((int) this->pt) != 0)
 3680              		.loc 5 766 0
 3681 01d2 7B68     		ldr	r3, [r7, #4]
 3682 01d4 93F8B030 		ldrb	r3, [r3, #176]	@ zero_extendqisi2
 3683 01d8 002B     		cmp	r3, #0
 3684 01da 40F01581 		bne	.L128
 3685              	.L122:
 3686              	.LBB51:
 767:../Task.cpp   **** 						break;
 768:../Task.cpp   **** 
 769:../Task.cpp   **** 				case 3: {
 770:../Task.cpp   **** 					// nur Mag
 771:../Task.cpp   **** 					const char* mag_msg =
 772:../Task.cpp   **** 							"Mag: x=%3.8f gauss, y=%3.8f gauss, z=%3.8f gauss\0";
 3687              		.loc 5 772 0
 3688 01de 40F20003 		movw	r3, #:lower16:.LC20
 3689 01e2 C0F20003 		movt	r3, #:upper16:.LC20
 3690 01e6 C7F8C430 		str	r3, [r7, #196]
 773:../Task.cpp   **** 
 774:../Task.cpp   **** 					char mag_str[70];
 775:../Task.cpp   **** 
 776:../Task.cpp   **** 					// Neuste Messwerte abrufen:
 777:../Task.cpp   **** 					Data data;
 778:../Task.cpp   **** 
 779:../Task.cpp   **** 					cbMag.get(data);
 3691              		.loc 5 779 0
 3692 01ea 07F19403 		add	r3, r7, #148
 3693 01ee 40F20000 		movw	r0, #:lower16:cbMag
 3694 01f2 C0F20000 		movt	r0, #:upper16:cbMag
 3695 01f6 1946     		mov	r1, r3
 3696 01f8 FFF7FEFF 		bl	_ZN5RODOS10CommBufferI4DataE3getERS1_
 780:../Task.cpp   **** 
 781:../Task.cpp   **** 					sprintf(mag_str, mag_msg, data.x, data.y,
 782:../Task.cpp   **** 							data.z);
 3697              		.loc 5 782 0
 3698 01fc D7F89430 		ldr	r3, [r7, #148]	@ float
 3699 0200 1846     		mov	r0, r3	@ float
 3700 0202 FFF7FEFF 		bl	__aeabi_f2d
 3701 0206 0446     		mov	r4, r0
 3702 0208 0D46     		mov	r5, r1
 3703 020a D7F89830 		ldr	r3, [r7, #152]	@ float
 3704 020e 1846     		mov	r0, r3	@ float
 3705 0210 FFF7FEFF 		bl	__aeabi_f2d
 3706 0214 8046     		mov	r8, r0
 3707 0216 8946     		mov	r9, r1
 3708 0218 D7F89C30 		ldr	r3, [r7, #156]	@ float
 3709 021c 1846     		mov	r0, r3	@ float
 3710 021e FFF7FEFF 		bl	__aeabi_f2d
 3711 0222 0246     		mov	r2, r0
 3712 0224 0B46     		mov	r3, r1
 3713 0226 07F10801 		add	r1, r7, #8
 3714 022a CDE90089 		strd	r8, [sp]
 3715 022e CDE90223 		strd	r2, [sp, #8]
 3716 0232 0846     		mov	r0, r1
 3717 0234 D7F8C410 		ldr	r1, [r7, #196]
 3718 0238 2246     		mov	r2, r4
 3719 023a 2B46     		mov	r3, r5
 3720 023c FFF7FEFF 		bl	sprintf
 783:../Task.cpp   **** 
 784:../Task.cpp   **** 					writeUART(BT2UART, mag_str);
 3721              		.loc 5 784 0
 3722 0240 07F10803 		add	r3, r7, #8
 3723 0244 40F20000 		movw	r0, #:lower16:BT2UART
 3724 0248 C0F20000 		movt	r0, #:upper16:BT2UART
 3725 024c 1946     		mov	r1, r3
 3726 024e FFF7FEFF 		bl	_ZL9writeUARTRN5RODOS8HAL_UARTEPKc
 3727              	.LBE51:
 785:../Task.cpp   **** 				}
 786:../Task.cpp   **** 					if (((int) this->pt) != 0)
 3728              		.loc 5 786 0
 3729 0252 7B68     		ldr	r3, [r7, #4]
 3730 0254 93F8B030 		ldrb	r3, [r3, #176]	@ zero_extendqisi2
 3731 0258 002B     		cmp	r3, #0
 3732 025a 40F0D780 		bne	.L129
 3733              	.L123:
 3734              	.LBB52:
 787:../Task.cpp   **** 						break;
 788:../Task.cpp   **** 
 789:../Task.cpp   **** 				case 4: {
 790:../Task.cpp   **** 					// nur Temp
 791:../Task.cpp   **** 					const char* temp_msg = "Temp: x=%3.5f C\0";
 3735              		.loc 5 791 0
 3736 025e 40F20003 		movw	r3, #:lower16:.LC21
 3737 0262 C0F20003 		movt	r3, #:upper16:.LC21
 3738 0266 C7F8C030 		str	r3, [r7, #192]
 792:../Task.cpp   **** 
 793:../Task.cpp   **** 					char temp_str[20];
 794:../Task.cpp   **** 
 795:../Task.cpp   **** 					// Neuste Messung abrufen:
 796:../Task.cpp   **** 					float temp;
 797:../Task.cpp   **** 
 798:../Task.cpp   **** 					cbTemp.get(temp);
 3739              		.loc 5 798 0
 3740 026a 07F17C03 		add	r3, r7, #124
 3741 026e 40F20000 		movw	r0, #:lower16:cbTemp
 3742 0272 C0F20000 		movt	r0, #:upper16:cbTemp
 3743 0276 1946     		mov	r1, r3
 3744 0278 FFF7FEFF 		bl	_ZN5RODOS10CommBufferIfE3getERf
 799:../Task.cpp   **** 
 800:../Task.cpp   **** 					sprintf(temp_str, temp_msg, temp);
 3745              		.loc 5 800 0
 3746 027c FB6F     		ldr	r3, [r7, #124]	@ float
 3747 027e 1846     		mov	r0, r3	@ float
 3748 0280 FFF7FEFF 		bl	__aeabi_f2d
 3749 0284 0246     		mov	r2, r0
 3750 0286 0B46     		mov	r3, r1
 3751 0288 07F18001 		add	r1, r7, #128
 3752 028c 0846     		mov	r0, r1
 3753 028e D7F8C010 		ldr	r1, [r7, #192]
 3754 0292 FFF7FEFF 		bl	sprintf
 801:../Task.cpp   **** 
 802:../Task.cpp   **** 					writeUART(BT2UART, temp_str);
 3755              		.loc 5 802 0
 3756 0296 07F18003 		add	r3, r7, #128
 3757 029a 40F20000 		movw	r0, #:lower16:BT2UART
 3758 029e C0F20000 		movt	r0, #:upper16:BT2UART
 3759 02a2 1946     		mov	r1, r3
 3760 02a4 FFF7FEFF 		bl	_ZL9writeUARTRN5RODOS8HAL_UARTEPKc
 3761              	.LBE52:
 803:../Task.cpp   **** 				}
 804:../Task.cpp   **** 					if (((int) this->pt) != 0)
 3762              		.loc 5 804 0
 3763 02a8 7B68     		ldr	r3, [r7, #4]
 3764 02aa 93F8B030 		ldrb	r3, [r3, #176]	@ zero_extendqisi2
 3765 02ae 002B     		cmp	r3, #0
 3766 02b0 40F0AE80 		bne	.L130
 3767              	.L124:
 3768              	.LBB53:
 805:../Task.cpp   **** 						break;
 806:../Task.cpp   **** 
 807:../Task.cpp   **** 				case 5: {
 808:../Task.cpp   **** 					// nur Orientierung:
 809:../Task.cpp   **** 					const char* orient_msg =
 810:../Task.cpp   **** 							"roll=%4.4f, pitch=%4.4f, yaw=%4.4f\0";
 3769              		.loc 5 810 0
 3770 02b4 40F20003 		movw	r3, #:lower16:.LC22
 3771 02b8 C0F20003 		movt	r3, #:upper16:.LC22
 3772 02bc C7F8BC30 		str	r3, [r7, #188]
 811:../Task.cpp   **** 
 812:../Task.cpp   **** 					char orient_str[47];
 813:../Task.cpp   **** 
 814:../Task.cpp   **** 					// Neuste Daten abrufen:
 815:../Task.cpp   **** 
 816:../Task.cpp   **** 					Data acc;
 817:../Task.cpp   **** 					Data mag;
 818:../Task.cpp   **** 					Data gyr;
 819:../Task.cpp   **** 					float roll = 0.0, pitch = 0.0, yaw = 0.0;
 3773              		.loc 5 819 0
 3774 02c0 4FF00003 		mov	r3, #0
 3775 02c4 7B65     		str	r3, [r7, #84]	@ float
 3776 02c6 4FF00003 		mov	r3, #0
 3777 02ca 3B65     		str	r3, [r7, #80]	@ float
 3778 02cc 4FF00003 		mov	r3, #0
 3779 02d0 C7F8B830 		str	r3, [r7, #184]	@ float
 820:../Task.cpp   **** 
 821:../Task.cpp   **** 					// Werte ausrechnen:
 822:../Task.cpp   **** 					cbAcc.get(acc);
 3780              		.loc 5 822 0
 3781 02d4 07F17003 		add	r3, r7, #112
 3782 02d8 40F20000 		movw	r0, #:lower16:cbAcc
 3783 02dc C0F20000 		movt	r0, #:upper16:cbAcc
 3784 02e0 1946     		mov	r1, r3
 3785 02e2 FFF7FEFF 		bl	_ZN5RODOS10CommBufferI4DataE3getERS1_
 823:../Task.cpp   **** 					cbMag.get(mag);
 3786              		.loc 5 823 0
 3787 02e6 07F16403 		add	r3, r7, #100
 3788 02ea 40F20000 		movw	r0, #:lower16:cbMag
 3789 02ee C0F20000 		movt	r0, #:upper16:cbMag
 3790 02f2 1946     		mov	r1, r3
 3791 02f4 FFF7FEFF 		bl	_ZN5RODOS10CommBufferI4DataE3getERS1_
 824:../Task.cpp   **** 					cbGyr.get(gyr);
 3792              		.loc 5 824 0
 3793 02f8 07F15803 		add	r3, r7, #88
 3794 02fc 40F20000 		movw	r0, #:lower16:cbGyr
 3795 0300 C0F20000 		movt	r0, #:upper16:cbGyr
 3796 0304 1946     		mov	r1, r3
 3797 0306 FFF7FEFF 		bl	_ZN5RODOS10CommBufferI4DataE3getERS1_
 825:../Task.cpp   **** 
 826:../Task.cpp   **** 					calcRP_Acc(pitch, roll, acc.x, acc.y, acc.z);
 3798              		.loc 5 826 0
 3799 030a 3A6F     		ldr	r2, [r7, #112]	@ float
 3800 030c 7B6F     		ldr	r3, [r7, #116]	@ float
 3801 030e BC6F     		ldr	r4, [r7, #120]	@ float
 3802 0310 07F15000 		add	r0, r7, #80
 3803 0314 07F15401 		add	r1, r7, #84
 3804 0318 0094     		str	r4, [sp, #0]	@ float
 3805 031a FFF7FEFF 		bl	_ZL10calcRP_AccRfS_fff
 827:../Task.cpp   **** 					//calcY_Mag(yaw, mag.z, mag.y, mag.z);
 828:../Task.cpp   **** 					yaw = calcYaw(gyr.z);
 3806              		.loc 5 828 0
 3807 031e 3B6E     		ldr	r3, [r7, #96]	@ float
 3808 0320 1846     		mov	r0, r3	@ float
 3809 0322 FFF7FEFF 		bl	_ZL7calcYawf
 3810 0326 C7F8B800 		str	r0, [r7, #184]	@ float
 829:../Task.cpp   **** 
 830:../Task.cpp   **** 					// Werte vom Bogenma in Grad umwandeln:
 831:../Task.cpp   **** 					roll *= 180.0 / M_PI;
 3811              		.loc 5 831 0
 3812 032a 7B6D     		ldr	r3, [r7, #84]	@ float
 3813 032c 1846     		mov	r0, r3	@ float
 3814 032e FFF7FEFF 		bl	__aeabi_f2d
 3815 0332 0246     		mov	r2, r0
 3816 0334 0B46     		mov	r3, r1
 3817 0336 1046     		mov	r0, r2
 3818 0338 1946     		mov	r1, r3
 3819 033a 51A3     		adr	r3, .L133+8
 3820 033c D3E90023 		ldrd	r2, [r3]
 3821 0340 FFF7FEFF 		bl	__aeabi_dmul
 3822 0344 0246     		mov	r2, r0
 3823 0346 0B46     		mov	r3, r1
 3824 0348 1046     		mov	r0, r2
 3825 034a 1946     		mov	r1, r3
 3826 034c FFF7FEFF 		bl	__aeabi_d2f
 3827 0350 0346     		mov	r3, r0	@ float
 3828 0352 7B65     		str	r3, [r7, #84]	@ float
 832:../Task.cpp   **** 					pitch *= 180.0 / M_PI;
 3829              		.loc 5 832 0
 3830 0354 3B6D     		ldr	r3, [r7, #80]	@ float
 3831 0356 1846     		mov	r0, r3	@ float
 3832 0358 FFF7FEFF 		bl	__aeabi_f2d
 3833 035c 0246     		mov	r2, r0
 3834 035e 0B46     		mov	r3, r1
 3835 0360 1046     		mov	r0, r2
 3836 0362 1946     		mov	r1, r3
 3837 0364 46A3     		adr	r3, .L133+8
 3838 0366 D3E90023 		ldrd	r2, [r3]
 3839 036a FFF7FEFF 		bl	__aeabi_dmul
 3840 036e 0246     		mov	r2, r0
 3841 0370 0B46     		mov	r3, r1
 3842 0372 1046     		mov	r0, r2
 3843 0374 1946     		mov	r1, r3
 3844 0376 FFF7FEFF 		bl	__aeabi_d2f
 3845 037a 0346     		mov	r3, r0	@ float
 3846 037c 3B65     		str	r3, [r7, #80]	@ float
 833:../Task.cpp   **** 					yaw *= 180.0 / M_PI;
 3847              		.loc 5 833 0
 3848 037e D7F8B800 		ldr	r0, [r7, #184]	@ float
 3849 0382 FFF7FEFF 		bl	__aeabi_f2d
 3850 0386 0246     		mov	r2, r0
 3851 0388 0B46     		mov	r3, r1
 3852 038a 1046     		mov	r0, r2
 3853 038c 1946     		mov	r1, r3
 3854 038e 3CA3     		adr	r3, .L133+8
 3855 0390 D3E90023 		ldrd	r2, [r3]
 3856 0394 FFF7FEFF 		bl	__aeabi_dmul
 3857 0398 0246     		mov	r2, r0
 3858 039a 0B46     		mov	r3, r1
 3859 039c 1046     		mov	r0, r2
 3860 039e 1946     		mov	r1, r3
 3861 03a0 FFF7FEFF 		bl	__aeabi_d2f
 3862 03a4 0346     		mov	r3, r0	@ float
 3863 03a6 C7F8B830 		str	r3, [r7, #184]	@ float
 834:../Task.cpp   **** 
 835:../Task.cpp   **** 					sprintf(orient_str, orient_msg, roll, pitch, yaw);
 3864              		.loc 5 835 0
 3865 03aa 7B6D     		ldr	r3, [r7, #84]	@ float
 3866 03ac 1846     		mov	r0, r3	@ float
 3867 03ae FFF7FEFF 		bl	__aeabi_f2d
 3868 03b2 0446     		mov	r4, r0
 3869 03b4 0D46     		mov	r5, r1
 3870 03b6 3B6D     		ldr	r3, [r7, #80]	@ float
 3871 03b8 1846     		mov	r0, r3	@ float
 3872 03ba FFF7FEFF 		bl	__aeabi_f2d
 3873 03be 8046     		mov	r8, r0
 3874 03c0 8946     		mov	r9, r1
 3875 03c2 D7F8B800 		ldr	r0, [r7, #184]	@ float
 3876 03c6 FFF7FEFF 		bl	__aeabi_f2d
 3877 03ca 0246     		mov	r2, r0
 3878 03cc 0B46     		mov	r3, r1
 3879 03ce 07F10801 		add	r1, r7, #8
 3880 03d2 CDE90089 		strd	r8, [sp]
 3881 03d6 CDE90223 		strd	r2, [sp, #8]
 3882 03da 0846     		mov	r0, r1
 3883 03dc D7F8BC10 		ldr	r1, [r7, #188]
 3884 03e0 2246     		mov	r2, r4
 3885 03e2 2B46     		mov	r3, r5
 3886 03e4 FFF7FEFF 		bl	sprintf
 836:../Task.cpp   **** 
 837:../Task.cpp   **** 					writeUART(BT2UART, orient_str);
 3887              		.loc 5 837 0
 3888 03e8 07F10803 		add	r3, r7, #8
 3889 03ec 40F20000 		movw	r0, #:lower16:BT2UART
 3890 03f0 C0F20000 		movt	r0, #:upper16:BT2UART
 3891 03f4 1946     		mov	r1, r3
 3892 03f6 FFF7FEFF 		bl	_ZL9writeUARTRN5RODOS8HAL_UARTEPKc
 3893              	.LBE53:
 838:../Task.cpp   **** 
 839:../Task.cpp   **** 				}
 840:../Task.cpp   **** 					if (((int) this->pt) != 0)
 3894              		.loc 5 840 0
 3895 03fa 7B68     		ldr	r3, [r7, #4]
 3896 03fc 93F8B030 		ldrb	r3, [r3, #176]	@ zero_extendqisi2
 3897 0400 002B     		cmp	r3, #0
 3898 0402 06E0     		b	.L119
 3899              	.L127:
 747:../Task.cpp   **** 						break;
 3900              		.loc 5 747 0
 3901 0404 00BF     		nop
 3902 0406 04E0     		b	.L119
 3903              	.L128:
 767:../Task.cpp   **** 						break;
 3904              		.loc 5 767 0
 3905 0408 00BF     		nop
 3906 040a 02E0     		b	.L119
 3907              	.L129:
 787:../Task.cpp   **** 						break;
 3908              		.loc 5 787 0
 3909 040c 00BF     		nop
 3910 040e 00E0     		b	.L119
 3911              	.L130:
 805:../Task.cpp   **** 						break;
 3912              		.loc 5 805 0
 3913 0410 00BF     		nop
 3914              	.L119:
 3915              	.LBE48:
 3916              	.LBE47:
 841:../Task.cpp   **** 						break;
 842:../Task.cpp   **** 				}
 843:../Task.cpp   **** 
 844:../Task.cpp   **** 				// Zeilenumbruch, um Datenstze voneinander trennen zu knnen
 845:../Task.cpp   **** 				writeUART(BT2UART, "\n");
 3917              		.loc 5 845 0
 3918 0412 40F20000 		movw	r0, #:lower16:BT2UART
 3919 0416 C0F20000 		movt	r0, #:upper16:BT2UART
 3920 041a 40F20001 		movw	r1, #:lower16:.LC23
 3921 041e C0F20001 		movt	r1, #:upper16:.LC23
 3922 0422 FFF7FEFF 		bl	_ZL9writeUARTRN5RODOS8HAL_UARTEPKc
 3923              	.L118:
 3924              	.LBE46:
 3925              	.LBE45:
 846:../Task.cpp   **** 			}
 847:../Task.cpp   **** 			// mit Interval suspenden:
 848:../Task.cpp   **** 			suspendCallerUntil(NOW()+ this->interval * MILLISECONDS);
 3926              		.loc 5 848 0
 3927 0426 FFF7FEFF 		bl	_ZN5RODOS9TimeModel14getNanosecondsEv
 3928 042a 0446     		mov	r4, r0
 3929 042c 0D46     		mov	r5, r1
 3930 042e 7B68     		ldr	r3, [r7, #4]
 3931 0430 D3F88410 		ldr	r1, [r3, #132]
 3932 0434 0A46     		mov	r2, r1
 3933 0436 4FF00003 		mov	r3, #0
 3934 043a 44F24021 		movw	r1, #16960
 3935 043e C0F20F01 		movt	r1, 15
 3936 0442 01FB03F0 		mul	r0, r1, r3
 3937 0446 4FF00001 		mov	r1, #0
 3938 044a 01FB02F1 		mul	r1, r1, r2
